
bin/Debug/TX.elf:     file format elf32-avr

Sections:
Idx Name          Size      VMA       LMA       File off  Algn
  0 .data         0000007c  00800100  00000d4e  00000de2  2**0
                  CONTENTS, ALLOC, LOAD, DATA
  1 .text         00000d4e  00000000  00000000  00000094  2**1
                  CONTENTS, ALLOC, LOAD, READONLY, CODE
  2 .bss          0000019d  0080017c  0080017c  00000e5e  2**0
                  ALLOC
  3 .stab         000035dc  00000000  00000000  00000e60  2**2
                  CONTENTS, READONLY, DEBUGGING
  4 .stabstr      00003040  00000000  00000000  0000443c  2**0
                  CONTENTS, READONLY, DEBUGGING
  5 .comment      00000011  00000000  00000000  0000747c  2**0
                  CONTENTS, READONLY

Disassembly of section .text:

00000000 <__vectors>:
   0:	0c 94 34 00 	jmp	0x68	; 0x68 <__ctors_end>
   4:	0c 94 51 00 	jmp	0xa2	; 0xa2 <__bad_interrupt>
   8:	0c 94 51 00 	jmp	0xa2	; 0xa2 <__bad_interrupt>
   c:	0c 94 51 00 	jmp	0xa2	; 0xa2 <__bad_interrupt>
  10:	0c 94 51 00 	jmp	0xa2	; 0xa2 <__bad_interrupt>
  14:	0c 94 51 00 	jmp	0xa2	; 0xa2 <__bad_interrupt>
  18:	0c 94 51 00 	jmp	0xa2	; 0xa2 <__bad_interrupt>
  1c:	0c 94 51 00 	jmp	0xa2	; 0xa2 <__bad_interrupt>
  20:	0c 94 51 00 	jmp	0xa2	; 0xa2 <__bad_interrupt>
  24:	0c 94 51 00 	jmp	0xa2	; 0xa2 <__bad_interrupt>
  28:	0c 94 51 00 	jmp	0xa2	; 0xa2 <__bad_interrupt>
  2c:	0c 94 51 00 	jmp	0xa2	; 0xa2 <__bad_interrupt>
  30:	0c 94 51 00 	jmp	0xa2	; 0xa2 <__bad_interrupt>
  34:	0c 94 51 00 	jmp	0xa2	; 0xa2 <__bad_interrupt>
  38:	0c 94 51 00 	jmp	0xa2	; 0xa2 <__bad_interrupt>
  3c:	0c 94 51 00 	jmp	0xa2	; 0xa2 <__bad_interrupt>
  40:	0c 94 51 00 	jmp	0xa2	; 0xa2 <__bad_interrupt>
  44:	0c 94 51 00 	jmp	0xa2	; 0xa2 <__bad_interrupt>
  48:	0c 94 f4 02 	jmp	0x5e8	; 0x5e8 <__vector_18>
  4c:	0c 94 51 00 	jmp	0xa2	; 0xa2 <__bad_interrupt>
  50:	0c 94 51 00 	jmp	0xa2	; 0xa2 <__bad_interrupt>
  54:	0c 94 51 00 	jmp	0xa2	; 0xa2 <__bad_interrupt>
  58:	0c 94 51 00 	jmp	0xa2	; 0xa2 <__bad_interrupt>
  5c:	0c 94 51 00 	jmp	0xa2	; 0xa2 <__bad_interrupt>
  60:	0c 94 51 00 	jmp	0xa2	; 0xa2 <__bad_interrupt>
  64:	0c 94 51 00 	jmp	0xa2	; 0xa2 <__bad_interrupt>

00000068 <__ctors_end>:
  68:	11 24       	eor	r1, r1
  6a:	1f be       	out	0x3f, r1	; 63
  6c:	cf ef       	ldi	r28, 0xFF	; 255
  6e:	d8 e0       	ldi	r29, 0x08	; 8
  70:	de bf       	out	0x3e, r29	; 62
  72:	cd bf       	out	0x3d, r28	; 61

00000074 <__do_copy_data>:
  74:	11 e0       	ldi	r17, 0x01	; 1
  76:	a0 e0       	ldi	r26, 0x00	; 0
  78:	b1 e0       	ldi	r27, 0x01	; 1
  7a:	ee e4       	ldi	r30, 0x4E	; 78
  7c:	fd e0       	ldi	r31, 0x0D	; 13
  7e:	02 c0       	rjmp	.+4      	; 0x84 <__do_copy_data+0x10>
  80:	05 90       	lpm	r0, Z+
  82:	0d 92       	st	X+, r0
  84:	ac 37       	cpi	r26, 0x7C	; 124
  86:	b1 07       	cpc	r27, r17
  88:	d9 f7       	brne	.-10     	; 0x80 <__do_copy_data+0xc>

0000008a <__do_clear_bss>:
  8a:	13 e0       	ldi	r17, 0x03	; 3
  8c:	ac e7       	ldi	r26, 0x7C	; 124
  8e:	b1 e0       	ldi	r27, 0x01	; 1
  90:	01 c0       	rjmp	.+2      	; 0x94 <.do_clear_bss_start>

00000092 <.do_clear_bss_loop>:
  92:	1d 92       	st	X+, r1

00000094 <.do_clear_bss_start>:
  94:	a9 31       	cpi	r26, 0x19	; 25
  96:	b1 07       	cpc	r27, r17
  98:	e1 f7       	brne	.-8      	; 0x92 <.do_clear_bss_loop>
  9a:	0e 94 57 06 	call	0xcae	; 0xcae <main>
  9e:	0c 94 a5 06 	jmp	0xd4a	; 0xd4a <_exit>

000000a2 <__bad_interrupt>:
  a2:	0c 94 00 00 	jmp	0	; 0x0 <__vectors>

000000a6 <nrf24_init>:
uint8_t payload_len;

/* init the hardware pins */
void nrf24_init()
{
    nrf24_setupPins();
  a6:	0e 94 76 03 	call	0x6ec	; 0x6ec <nrf24_setupPins>
    nrf24_ce_digitalWrite(LOW);
  aa:	80 e0       	ldi	r24, 0x00	; 0
  ac:	0e 94 7c 03 	call	0x6f8	; 0x6f8 <nrf24_ce_digitalWrite>
    nrf24_csn_digitalWrite(HIGH);
  b0:	81 e0       	ldi	r24, 0x01	; 1
  b2:	0c 94 82 03 	jmp	0x704	; 0x704 <nrf24_csn_digitalWrite>

000000b6 <nrf24_payload_length>:

/* Returns the payload length */
uint8_t nrf24_payload_length()
{
    return payload_len;
}
  b6:	80 91 7f 01 	lds	r24, 0x017F
  ba:	08 95       	ret

000000bc <spi_transfer>:
    nrf24_configRegister(CONFIG,nrf24_CONFIG);
}

/* software spi routine */
uint8_t spi_transfer(uint8_t tx)
{
  bc:	ff 92       	push	r15
  be:	0f 93       	push	r16
  c0:	1f 93       	push	r17
  c2:	cf 93       	push	r28
  c4:	df 93       	push	r29
  c6:	08 2f       	mov	r16, r24
    uint8_t i = 0;
    uint8_t rx = 0;

    nrf24_sck_digitalWrite(LOW);
  c8:	80 e0       	ldi	r24, 0x00	; 0
  ca:	0e 94 88 03 	call	0x710	; 0x710 <nrf24_sck_digitalWrite>
  ce:	c7 e0       	ldi	r28, 0x07	; 7
  d0:	d0 e0       	ldi	r29, 0x00	; 0

/* software spi routine */
uint8_t spi_transfer(uint8_t tx)
{
    uint8_t i = 0;
    uint8_t rx = 0;
  d2:	f1 2c       	mov	r15, r1
    nrf24_sck_digitalWrite(LOW);

    for(i=0; i<8; i++)
    {

        if(tx & (1<<(7-i)))
  d4:	10 e0       	ldi	r17, 0x00	; 0
  d6:	98 01       	movw	r18, r16
  d8:	0c 2e       	mov	r0, r28
  da:	02 c0       	rjmp	.+4      	; 0xe0 <spi_transfer+0x24>
  dc:	35 95       	asr	r19
  de:	27 95       	ror	r18
  e0:	0a 94       	dec	r0
  e2:	e2 f7       	brpl	.-8      	; 0xdc <spi_transfer+0x20>
  e4:	20 ff       	sbrs	r18, 0
  e6:	02 c0       	rjmp	.+4      	; 0xec <spi_transfer+0x30>
        {
            nrf24_mosi_digitalWrite(HIGH);
  e8:	81 e0       	ldi	r24, 0x01	; 1
  ea:	01 c0       	rjmp	.+2      	; 0xee <spi_transfer+0x32>
        }
        else
        {
            nrf24_mosi_digitalWrite(LOW);
  ec:	80 e0       	ldi	r24, 0x00	; 0
  ee:	0e 94 8e 03 	call	0x71c	; 0x71c <nrf24_mosi_digitalWrite>
        }

        nrf24_sck_digitalWrite(HIGH);
  f2:	81 e0       	ldi	r24, 0x01	; 1
  f4:	0e 94 88 03 	call	0x710	; 0x710 <nrf24_sck_digitalWrite>

        rx = rx << 1;
  f8:	ff 0c       	add	r15, r15
        if(nrf24_miso_digitalRead())
  fa:	0e 94 94 03 	call	0x728	; 0x728 <nrf24_miso_digitalRead>
  fe:	88 23       	and	r24, r24
 100:	11 f0       	breq	.+4      	; 0x106 <spi_transfer+0x4a>
        {
            rx |= 0x01;
 102:	81 e0       	ldi	r24, 0x01	; 1
 104:	f8 2a       	or	r15, r24
        }

        nrf24_sck_digitalWrite(LOW);
 106:	80 e0       	ldi	r24, 0x00	; 0
 108:	0e 94 88 03 	call	0x710	; 0x710 <nrf24_sck_digitalWrite>
 10c:	21 97       	sbiw	r28, 0x01	; 1
 10e:	18 f7       	brcc	.-58     	; 0xd6 <spi_transfer+0x1a>

    }

    return rx;
}
 110:	8f 2d       	mov	r24, r15
 112:	df 91       	pop	r29
 114:	cf 91       	pop	r28
 116:	1f 91       	pop	r17
 118:	0f 91       	pop	r16
 11a:	ff 90       	pop	r15
 11c:	08 95       	ret

0000011e <nrf24_getStatus>:
    return 1; /* true */

}

uint8_t nrf24_getStatus()
{
 11e:	cf 93       	push	r28
    uint8_t rv;
    nrf24_csn_digitalWrite(LOW);
 120:	80 e0       	ldi	r24, 0x00	; 0
 122:	0e 94 82 03 	call	0x704	; 0x704 <nrf24_csn_digitalWrite>
    rv = spi_transfer(NOP);
 126:	8f ef       	ldi	r24, 0xFF	; 255
 128:	0e 94 5e 00 	call	0xbc	; 0xbc <spi_transfer>
 12c:	c8 2f       	mov	r28, r24
    nrf24_csn_digitalWrite(HIGH);
 12e:	81 e0       	ldi	r24, 0x01	; 1
 130:	0e 94 82 03 	call	0x704	; 0x704 <nrf24_csn_digitalWrite>
    return rv;
}
 134:	8c 2f       	mov	r24, r28
 136:	cf 91       	pop	r28
 138:	08 95       	ret

0000013a <nrf24_lastMessageStatus>:

uint8_t nrf24_lastMessageStatus()
{
    uint8_t rv;

    rv = nrf24_getStatus();
 13a:	0e 94 8f 00 	call	0x11e	; 0x11e <nrf24_getStatus>

    /* Transmission went OK */
    if((rv & ((1 << TX_DS))))
 13e:	85 fd       	sbrc	r24, 5
 140:	04 c0       	rjmp	.+8      	; 0x14a <nrf24_lastMessageStatus+0x10>
    {
        return NRF24_TRANSMISSON_OK;
    }
    /* Maximum retransmission count is reached */
    /* Last message probably went missing ... */
    else if((rv & ((1 << MAX_RT))))
 142:	84 ff       	sbrs	r24, 4
 144:	04 c0       	rjmp	.+8      	; 0x14e <nrf24_lastMessageStatus+0x14>
    {
        return NRF24_MESSAGE_LOST;
 146:	81 e0       	ldi	r24, 0x01	; 1
 148:	08 95       	ret
    rv = nrf24_getStatus();

    /* Transmission went OK */
    if((rv & ((1 << TX_DS))))
    {
        return NRF24_TRANSMISSON_OK;
 14a:	80 e0       	ldi	r24, 0x00	; 0
 14c:	08 95       	ret
        return NRF24_MESSAGE_LOST;
    }
    /* Probably still sending ... */
    else
    {
        return 0xFF;
 14e:	8f ef       	ldi	r24, 0xFF	; 255
    }
}
 150:	08 95       	ret

00000152 <nrf24_isSending>:
uint8_t nrf24_isSending()
{
    uint8_t status;

    /* read the current status */
    status = nrf24_getStatus();
 152:	0e 94 8f 00 	call	0x11e	; 0x11e <nrf24_getStatus>

    /* if sending successful (TX_DS) or max retries exceded (MAX_RT). */
    if((status & ((1 << TX_DS)  | (1 << MAX_RT))))
 156:	98 2f       	mov	r25, r24
 158:	90 73       	andi	r25, 0x30	; 48
 15a:	81 e0       	ldi	r24, 0x01	; 1
 15c:	09 f0       	breq	.+2      	; 0x160 <nrf24_isSending+0xe>
 15e:	80 e0       	ldi	r24, 0x00	; 0
        return 0; /* false */
    }

    return 1; /* true */

}
 160:	08 95       	ret

00000162 <nrf24_payloadLength>:
    return (fifoStatus & (1 << RX_EMPTY));
}

/* Returns the length of data waiting in the RX fifo */
uint8_t nrf24_payloadLength()
{
 162:	cf 93       	push	r28
    uint8_t status;
    nrf24_csn_digitalWrite(LOW);
 164:	80 e0       	ldi	r24, 0x00	; 0
 166:	0e 94 82 03 	call	0x704	; 0x704 <nrf24_csn_digitalWrite>
    spi_transfer(R_RX_PL_WID);
 16a:	80 e6       	ldi	r24, 0x60	; 96
 16c:	0e 94 5e 00 	call	0xbc	; 0xbc <spi_transfer>
    status = spi_transfer(0x00);
 170:	80 e0       	ldi	r24, 0x00	; 0
 172:	0e 94 5e 00 	call	0xbc	; 0xbc <spi_transfer>
 176:	c8 2f       	mov	r28, r24
    nrf24_csn_digitalWrite(HIGH);
 178:	81 e0       	ldi	r24, 0x01	; 1
 17a:	0e 94 82 03 	call	0x704	; 0x704 <nrf24_csn_digitalWrite>
    return status;
}
 17e:	8c 2f       	mov	r24, r28
 180:	cf 91       	pop	r28
 182:	08 95       	ret

00000184 <nrf24_transferSync1>:
    }

    return rx;
}
void nrf24_transferSync1(uint8_t* dataout,uint8_t* datain,uint8_t len)
{
 184:	cf 92       	push	r12
 186:	df 92       	push	r13
 188:	ff 92       	push	r15
 18a:	0f 93       	push	r16
 18c:	1f 93       	push	r17
 18e:	cf 93       	push	r28
 190:	df 93       	push	r29
 192:	1f 92       	push	r1
 194:	cd b7       	in	r28, 0x3d	; 61
 196:	de b7       	in	r29, 0x3e	; 62
 198:	f8 2e       	mov	r15, r24
 19a:	8b 01       	movw	r16, r22
    uint8_t i;

    for(i=0; i<len; i++)
 19c:	c8 2e       	mov	r12, r24
 19e:	d9 2e       	mov	r13, r25
 1a0:	0a c0       	rjmp	.+20     	; 0x1b6 <nrf24_transferSync1+0x32>
    {
        datain[i] = spi_transfer(dataout[i]);
 1a2:	f6 01       	movw	r30, r12
 1a4:	81 91       	ld	r24, Z+
 1a6:	6f 01       	movw	r12, r30
 1a8:	49 83       	std	Y+1, r20	; 0x01
 1aa:	0e 94 5e 00 	call	0xbc	; 0xbc <spi_transfer>
 1ae:	f8 01       	movw	r30, r16
 1b0:	81 93       	st	Z+, r24
 1b2:	8f 01       	movw	r16, r30
 1b4:	49 81       	ldd	r20, Y+1	; 0x01
}
void nrf24_transferSync1(uint8_t* dataout,uint8_t* datain,uint8_t len)
{
    uint8_t i;

    for(i=0; i<len; i++)
 1b6:	8c 2d       	mov	r24, r12
 1b8:	8f 19       	sub	r24, r15
 1ba:	84 17       	cp	r24, r20
 1bc:	90 f3       	brcs	.-28     	; 0x1a2 <nrf24_transferSync1+0x1e>
    {
        datain[i] = spi_transfer(dataout[i]);
    }

}
 1be:	0f 90       	pop	r0
 1c0:	df 91       	pop	r29
 1c2:	cf 91       	pop	r28
 1c4:	1f 91       	pop	r17
 1c6:	0f 91       	pop	r16
 1c8:	ff 90       	pop	r15
 1ca:	df 90       	pop	r13
 1cc:	cf 90       	pop	r12
 1ce:	08 95       	ret

000001d0 <nrf24_transferSync>:
/* send and receive multiple bytes over SPI */
void nrf24_transferSync(char* dataout,char* datain,uint8_t len)
{
 1d0:	cf 92       	push	r12
 1d2:	df 92       	push	r13
 1d4:	ff 92       	push	r15
 1d6:	0f 93       	push	r16
 1d8:	1f 93       	push	r17
 1da:	cf 93       	push	r28
 1dc:	df 93       	push	r29
 1de:	1f 92       	push	r1
 1e0:	cd b7       	in	r28, 0x3d	; 61
 1e2:	de b7       	in	r29, 0x3e	; 62
 1e4:	f8 2e       	mov	r15, r24
 1e6:	8b 01       	movw	r16, r22
    uint8_t i;

    for(i=0; i<len; i++)
 1e8:	c8 2e       	mov	r12, r24
 1ea:	d9 2e       	mov	r13, r25
 1ec:	0a c0       	rjmp	.+20     	; 0x202 <nrf24_transferSync+0x32>
    {
        datain[i] = spi_transfer(dataout[i]);
 1ee:	f6 01       	movw	r30, r12
 1f0:	81 91       	ld	r24, Z+
 1f2:	6f 01       	movw	r12, r30
 1f4:	49 83       	std	Y+1, r20	; 0x01
 1f6:	0e 94 5e 00 	call	0xbc	; 0xbc <spi_transfer>
 1fa:	f8 01       	movw	r30, r16
 1fc:	81 93       	st	Z+, r24
 1fe:	8f 01       	movw	r16, r30
 200:	49 81       	ldd	r20, Y+1	; 0x01
/* send and receive multiple bytes over SPI */
void nrf24_transferSync(char* dataout,char* datain,uint8_t len)
{
    uint8_t i;

    for(i=0; i<len; i++)
 202:	8c 2d       	mov	r24, r12
 204:	8f 19       	sub	r24, r15
 206:	84 17       	cp	r24, r20
 208:	90 f3       	brcs	.-28     	; 0x1ee <nrf24_transferSync+0x1e>
    {
        datain[i] = spi_transfer(dataout[i]);
    }

}
 20a:	0f 90       	pop	r0
 20c:	df 91       	pop	r29
 20e:	cf 91       	pop	r28
 210:	1f 91       	pop	r17
 212:	0f 91       	pop	r16
 214:	ff 90       	pop	r15
 216:	df 90       	pop	r13
 218:	cf 90       	pop	r12
 21a:	08 95       	ret

0000021c <nrf24_transmitSync1>:
void nrf24_transmitSync1(uint8_t* dataout,uint8_t len)
{
 21c:	ef 92       	push	r14
 21e:	ff 92       	push	r15
 220:	1f 93       	push	r17
 222:	cf 93       	push	r28
 224:	df 93       	push	r29
 226:	1f 92       	push	r1
 228:	cd b7       	in	r28, 0x3d	; 61
 22a:	de b7       	in	r29, 0x3e	; 62
 22c:	18 2f       	mov	r17, r24
    uint8_t i;

    for(i=0; i<len; i++)
 22e:	e8 2e       	mov	r14, r24
 230:	f9 2e       	mov	r15, r25
 232:	07 c0       	rjmp	.+14     	; 0x242 <nrf24_transmitSync1+0x26>
    {
        spi_transfer(dataout[i]);
 234:	f7 01       	movw	r30, r14
 236:	81 91       	ld	r24, Z+
 238:	7f 01       	movw	r14, r30
 23a:	69 83       	std	Y+1, r22	; 0x01
 23c:	0e 94 5e 00 	call	0xbc	; 0xbc <spi_transfer>
 240:	69 81       	ldd	r22, Y+1	; 0x01
}
void nrf24_transmitSync1(uint8_t* dataout,uint8_t len)
{
    uint8_t i;

    for(i=0; i<len; i++)
 242:	8e 2d       	mov	r24, r14
 244:	81 1b       	sub	r24, r17
 246:	86 17       	cp	r24, r22
 248:	a8 f3       	brcs	.-22     	; 0x234 <nrf24_transmitSync1+0x18>
    {
        spi_transfer(dataout[i]);
    }

}
 24a:	0f 90       	pop	r0
 24c:	df 91       	pop	r29
 24e:	cf 91       	pop	r28
 250:	1f 91       	pop	r17
 252:	ff 90       	pop	r15
 254:	ef 90       	pop	r14
 256:	08 95       	ret

00000258 <nrf24_transmitSync>:
/* send multiple bytes over SPI */
void nrf24_transmitSync(char* dataout,uint8_t len)
{
 258:	ef 92       	push	r14
 25a:	ff 92       	push	r15
 25c:	1f 93       	push	r17
 25e:	cf 93       	push	r28
 260:	df 93       	push	r29
 262:	1f 92       	push	r1
 264:	cd b7       	in	r28, 0x3d	; 61
 266:	de b7       	in	r29, 0x3e	; 62
 268:	18 2f       	mov	r17, r24
    uint8_t i;

    for(i=0; i<len; i++)
 26a:	e8 2e       	mov	r14, r24
 26c:	f9 2e       	mov	r15, r25
 26e:	07 c0       	rjmp	.+14     	; 0x27e <nrf24_transmitSync+0x26>
    {
        spi_transfer(dataout[i]);
 270:	f7 01       	movw	r30, r14
 272:	81 91       	ld	r24, Z+
 274:	7f 01       	movw	r14, r30
 276:	69 83       	std	Y+1, r22	; 0x01
 278:	0e 94 5e 00 	call	0xbc	; 0xbc <spi_transfer>
 27c:	69 81       	ldd	r22, Y+1	; 0x01
/* send multiple bytes over SPI */
void nrf24_transmitSync(char* dataout,uint8_t len)
{
    uint8_t i;

    for(i=0; i<len; i++)
 27e:	8e 2d       	mov	r24, r14
 280:	81 1b       	sub	r24, r17
 282:	86 17       	cp	r24, r22
 284:	a8 f3       	brcs	.-22     	; 0x270 <nrf24_transmitSync+0x18>
    {
        spi_transfer(dataout[i]);
    }

}
 286:	0f 90       	pop	r0
 288:	df 91       	pop	r29
 28a:	cf 91       	pop	r28
 28c:	1f 91       	pop	r17
 28e:	ff 90       	pop	r15
 290:	ef 90       	pop	r14
 292:	08 95       	ret

00000294 <nrf24_configRegister>:

/* Clocks only one byte into the given nrf24 register */
void nrf24_configRegister(uint8_t reg, uint8_t value)
{
 294:	1f 93       	push	r17
 296:	cf 93       	push	r28
 298:	df 93       	push	r29
 29a:	1f 92       	push	r1
 29c:	cd b7       	in	r28, 0x3d	; 61
 29e:	de b7       	in	r29, 0x3e	; 62
 2a0:	18 2f       	mov	r17, r24
    nrf24_csn_digitalWrite(LOW);
 2a2:	80 e0       	ldi	r24, 0x00	; 0
 2a4:	69 83       	std	Y+1, r22	; 0x01
 2a6:	0e 94 82 03 	call	0x704	; 0x704 <nrf24_csn_digitalWrite>
    spi_transfer(W_REGISTER | (REGISTER_MASK & reg));
 2aa:	81 2f       	mov	r24, r17
 2ac:	8f 71       	andi	r24, 0x1F	; 31
 2ae:	80 62       	ori	r24, 0x20	; 32
 2b0:	0e 94 5e 00 	call	0xbc	; 0xbc <spi_transfer>
    spi_transfer(value);
 2b4:	69 81       	ldd	r22, Y+1	; 0x01
 2b6:	86 2f       	mov	r24, r22
 2b8:	0e 94 5e 00 	call	0xbc	; 0xbc <spi_transfer>
    nrf24_csn_digitalWrite(HIGH);
 2bc:	81 e0       	ldi	r24, 0x01	; 1
}
 2be:	0f 90       	pop	r0
 2c0:	df 91       	pop	r29
 2c2:	cf 91       	pop	r28
 2c4:	1f 91       	pop	r17
void nrf24_configRegister(uint8_t reg, uint8_t value)
{
    nrf24_csn_digitalWrite(LOW);
    spi_transfer(W_REGISTER | (REGISTER_MASK & reg));
    spi_transfer(value);
    nrf24_csn_digitalWrite(HIGH);
 2c6:	0c 94 82 03 	jmp	0x704	; 0x704 <nrf24_csn_digitalWrite>

000002ca <nrf24_powerDown>:
    nrf24_configRegister(CONFIG,nrf24_CONFIG|((1<<PWR_UP)|(0<<PRIM_RX)));
}

void nrf24_powerDown()
{
    nrf24_ce_digitalWrite(LOW);
 2ca:	80 e0       	ldi	r24, 0x00	; 0
 2cc:	0e 94 7c 03 	call	0x6f8	; 0x6f8 <nrf24_ce_digitalWrite>
    nrf24_configRegister(CONFIG,nrf24_CONFIG);
 2d0:	68 e0       	ldi	r22, 0x08	; 8
 2d2:	80 e0       	ldi	r24, 0x00	; 0
 2d4:	0c 94 4a 01 	jmp	0x294	; 0x294 <nrf24_configRegister>

000002d8 <nrf24_powerUpTx>:
    nrf24_ce_digitalWrite(HIGH);
}

void nrf24_powerUpTx()
{
    nrf24_configRegister(STATUS,(1<<RX_DR)|(1<<TX_DS)|(1<<MAX_RT));
 2d8:	60 e7       	ldi	r22, 0x70	; 112
 2da:	87 e0       	ldi	r24, 0x07	; 7
 2dc:	0e 94 4a 01 	call	0x294	; 0x294 <nrf24_configRegister>

    nrf24_configRegister(CONFIG,nrf24_CONFIG|((1<<PWR_UP)|(0<<PRIM_RX)));
 2e0:	6a e0       	ldi	r22, 0x0A	; 10
 2e2:	80 e0       	ldi	r24, 0x00	; 0
 2e4:	0c 94 4a 01 	jmp	0x294	; 0x294 <nrf24_configRegister>

000002e8 <nrf24_send>:
}

// Sends a data package to the default address. Be sure to send the correct
// amount of bytes as configured as payload on the receiver.
void nrf24_send(char* value)
{
 2e8:	cf 93       	push	r28
 2ea:	df 93       	push	r29
 2ec:	ec 01       	movw	r28, r24
    /* Go to Standby-I first */
    nrf24_ce_digitalWrite(LOW);
 2ee:	80 e0       	ldi	r24, 0x00	; 0
 2f0:	0e 94 7c 03 	call	0x6f8	; 0x6f8 <nrf24_ce_digitalWrite>

    /* Set to transmitter mode , Power up if needed */
    nrf24_powerUpTx();
 2f4:	0e 94 6c 01 	call	0x2d8	; 0x2d8 <nrf24_powerUpTx>

    /* Do we really need to flush TX fifo each time ? */
#if 1
    /* Pull down chip select */
    nrf24_csn_digitalWrite(LOW);
 2f8:	80 e0       	ldi	r24, 0x00	; 0
 2fa:	0e 94 82 03 	call	0x704	; 0x704 <nrf24_csn_digitalWrite>

    /* Write cmd to flush transmit FIFO */
    spi_transfer(FLUSH_TX);
 2fe:	81 ee       	ldi	r24, 0xE1	; 225
 300:	0e 94 5e 00 	call	0xbc	; 0xbc <spi_transfer>

    /* Pull up chip select */
    nrf24_csn_digitalWrite(HIGH);
 304:	81 e0       	ldi	r24, 0x01	; 1
 306:	0e 94 82 03 	call	0x704	; 0x704 <nrf24_csn_digitalWrite>
#endif

    /* Pull down chip select */
    nrf24_csn_digitalWrite(LOW);
 30a:	80 e0       	ldi	r24, 0x00	; 0
 30c:	0e 94 82 03 	call	0x704	; 0x704 <nrf24_csn_digitalWrite>

    /* Write cmd to write payload */
    spi_transfer(W_TX_PAYLOAD);
 310:	80 ea       	ldi	r24, 0xA0	; 160
 312:	0e 94 5e 00 	call	0xbc	; 0xbc <spi_transfer>

    /* Write payload */
    nrf24_transmitSync(value,payload_len);
 316:	60 91 7f 01 	lds	r22, 0x017F
 31a:	ce 01       	movw	r24, r28
 31c:	0e 94 2c 01 	call	0x258	; 0x258 <nrf24_transmitSync>

    /* Pull up chip select */
    nrf24_csn_digitalWrite(HIGH);
 320:	81 e0       	ldi	r24, 0x01	; 1
 322:	0e 94 82 03 	call	0x704	; 0x704 <nrf24_csn_digitalWrite>

    /* Start the transmission */
    nrf24_ce_digitalWrite(HIGH);
 326:	81 e0       	ldi	r24, 0x01	; 1
}
 328:	df 91       	pop	r29
 32a:	cf 91       	pop	r28

    /* Pull up chip select */
    nrf24_csn_digitalWrite(HIGH);

    /* Start the transmission */
    nrf24_ce_digitalWrite(HIGH);
 32c:	0c 94 7c 03 	jmp	0x6f8	; 0x6f8 <nrf24_ce_digitalWrite>

00000330 <nrf24_powerUpRx>:
    }
}

void nrf24_powerUpRx()
{
    nrf24_csn_digitalWrite(LOW);
 330:	80 e0       	ldi	r24, 0x00	; 0
 332:	0e 94 82 03 	call	0x704	; 0x704 <nrf24_csn_digitalWrite>
    spi_transfer(FLUSH_RX);
 336:	82 ee       	ldi	r24, 0xE2	; 226
 338:	0e 94 5e 00 	call	0xbc	; 0xbc <spi_transfer>
    nrf24_csn_digitalWrite(HIGH);
 33c:	81 e0       	ldi	r24, 0x01	; 1
 33e:	0e 94 82 03 	call	0x704	; 0x704 <nrf24_csn_digitalWrite>

    nrf24_configRegister(STATUS,(1<<RX_DR)|(1<<TX_DS)|(1<<MAX_RT));
 342:	60 e7       	ldi	r22, 0x70	; 112
 344:	87 e0       	ldi	r24, 0x07	; 7
 346:	0e 94 4a 01 	call	0x294	; 0x294 <nrf24_configRegister>

    nrf24_ce_digitalWrite(LOW);
 34a:	80 e0       	ldi	r24, 0x00	; 0
 34c:	0e 94 7c 03 	call	0x6f8	; 0x6f8 <nrf24_ce_digitalWrite>
    nrf24_configRegister(CONFIG,nrf24_CONFIG|((1<<PWR_UP)|(1<<PRIM_RX)));
 350:	6b e0       	ldi	r22, 0x0B	; 11
 352:	80 e0       	ldi	r24, 0x00	; 0
 354:	0e 94 4a 01 	call	0x294	; 0x294 <nrf24_configRegister>
    nrf24_ce_digitalWrite(HIGH);
 358:	81 e0       	ldi	r24, 0x01	; 1
 35a:	0c 94 7c 03 	jmp	0x6f8	; 0x6f8 <nrf24_ce_digitalWrite>

0000035e <nrf24_getData>:
    return status;
}

/* Reads payload bytes into data array */
void nrf24_getData(char* data)
{
 35e:	cf 93       	push	r28
 360:	df 93       	push	r29
 362:	ec 01       	movw	r28, r24
    /* Pull down chip select */
    nrf24_csn_digitalWrite(LOW);
 364:	80 e0       	ldi	r24, 0x00	; 0
 366:	0e 94 82 03 	call	0x704	; 0x704 <nrf24_csn_digitalWrite>

    /* Send cmd to read rx payload */
    spi_transfer( R_RX_PAYLOAD );
 36a:	81 e6       	ldi	r24, 0x61	; 97
 36c:	0e 94 5e 00 	call	0xbc	; 0xbc <spi_transfer>

    /* Read payload */
    nrf24_transferSync(data,data,payload_len);
 370:	40 91 7f 01 	lds	r20, 0x017F
 374:	be 01       	movw	r22, r28
 376:	ce 01       	movw	r24, r28
 378:	0e 94 e8 00 	call	0x1d0	; 0x1d0 <nrf24_transferSync>

    /* Pull up chip select */
    nrf24_csn_digitalWrite(HIGH);
 37c:	81 e0       	ldi	r24, 0x01	; 1
 37e:	0e 94 82 03 	call	0x704	; 0x704 <nrf24_csn_digitalWrite>

    /* Reset status register */
    nrf24_configRegister(STATUS,(1<<RX_DR));
 382:	60 e4       	ldi	r22, 0x40	; 64
 384:	87 e0       	ldi	r24, 0x07	; 7
}
 386:	df 91       	pop	r29
 388:	cf 91       	pop	r28

    /* Pull up chip select */
    nrf24_csn_digitalWrite(HIGH);

    /* Reset status register */
    nrf24_configRegister(STATUS,(1<<RX_DR));
 38a:	0c 94 4a 01 	jmp	0x294	; 0x294 <nrf24_configRegister>

0000038e <nrf24_config>:

/* configure the module */
void nrf24_config(uint8_t channel, uint8_t pay_length)
{
    /* Use static payload length ... */
    payload_len = pay_length;
 38e:	60 93 7f 01 	sts	0x017F, r22

    // Set RF channel
    nrf24_configRegister(RF_CH,channel);
 392:	68 2f       	mov	r22, r24
 394:	85 e0       	ldi	r24, 0x05	; 5
 396:	0e 94 4a 01 	call	0x294	; 0x294 <nrf24_configRegister>

    // Set length of incoming payload
    nrf24_configRegister(RX_PW_P0, 0x00); // Auto-ACK pipe ...
 39a:	60 e0       	ldi	r22, 0x00	; 0
 39c:	81 e1       	ldi	r24, 0x11	; 17
 39e:	0e 94 4a 01 	call	0x294	; 0x294 <nrf24_configRegister>
    nrf24_configRegister(RX_PW_P1, payload_len); // Data payload pipe
 3a2:	60 91 7f 01 	lds	r22, 0x017F
 3a6:	82 e1       	ldi	r24, 0x12	; 18
 3a8:	0e 94 4a 01 	call	0x294	; 0x294 <nrf24_configRegister>
    nrf24_configRegister(RX_PW_P2, 0x00); // Pipe not used
 3ac:	60 e0       	ldi	r22, 0x00	; 0
 3ae:	83 e1       	ldi	r24, 0x13	; 19
 3b0:	0e 94 4a 01 	call	0x294	; 0x294 <nrf24_configRegister>
    nrf24_configRegister(RX_PW_P3, 0x00); // Pipe not used
 3b4:	60 e0       	ldi	r22, 0x00	; 0
 3b6:	84 e1       	ldi	r24, 0x14	; 20
 3b8:	0e 94 4a 01 	call	0x294	; 0x294 <nrf24_configRegister>
    nrf24_configRegister(RX_PW_P4, 0x00); // Pipe not used
 3bc:	60 e0       	ldi	r22, 0x00	; 0
 3be:	85 e1       	ldi	r24, 0x15	; 21
 3c0:	0e 94 4a 01 	call	0x294	; 0x294 <nrf24_configRegister>
    nrf24_configRegister(RX_PW_P5, 0x00); // Pipe not used
 3c4:	60 e0       	ldi	r22, 0x00	; 0
 3c6:	86 e1       	ldi	r24, 0x16	; 22
 3c8:	0e 94 4a 01 	call	0x294	; 0x294 <nrf24_configRegister>

    // 1 Mbps, TX gain: 0dbm
    nrf24_configRegister(RF_SETUP, (0<<RF_DR)|((0x03)<<RF_PWR));
 3cc:	66 e0       	ldi	r22, 0x06	; 6
 3ce:	86 e0       	ldi	r24, 0x06	; 6
 3d0:	0e 94 4a 01 	call	0x294	; 0x294 <nrf24_configRegister>

    // CRC enable, 1 byte CRC length
    nrf24_configRegister(CONFIG,nrf24_CONFIG);
 3d4:	68 e0       	ldi	r22, 0x08	; 8
 3d6:	80 e0       	ldi	r24, 0x00	; 0
 3d8:	0e 94 4a 01 	call	0x294	; 0x294 <nrf24_configRegister>

    // Auto Acknowledgment
    nrf24_configRegister(EN_AA,(1<<ENAA_P0)|(1<<ENAA_P1)|(0<<ENAA_P2)|(0<<ENAA_P3)|(0<<ENAA_P4)|(0<<ENAA_P5));
 3dc:	63 e0       	ldi	r22, 0x03	; 3
 3de:	81 e0       	ldi	r24, 0x01	; 1
 3e0:	0e 94 4a 01 	call	0x294	; 0x294 <nrf24_configRegister>

    // Enable RX addresses
    nrf24_configRegister(EN_RXADDR,(1<<ERX_P0)|(1<<ERX_P1)|(0<<ERX_P2)|(0<<ERX_P3)|(0<<ERX_P4)|(0<<ERX_P5));
 3e4:	63 e0       	ldi	r22, 0x03	; 3
 3e6:	82 e0       	ldi	r24, 0x02	; 2
 3e8:	0e 94 4a 01 	call	0x294	; 0x294 <nrf24_configRegister>

    // Auto retransmit delay: 1000 us and Up to 15 retransmit trials
    nrf24_configRegister(SETUP_RETR,(0x04<<ARD)|(0x0F<<ARC));
 3ec:	6f e4       	ldi	r22, 0x4F	; 79
 3ee:	84 e0       	ldi	r24, 0x04	; 4
 3f0:	0e 94 4a 01 	call	0x294	; 0x294 <nrf24_configRegister>

    // Dynamic length configurations: No dynamic length
    nrf24_configRegister(DYNPD,(0<<DPL_P0)|(0<<DPL_P1)|(0<<DPL_P2)|(0<<DPL_P3)|(0<<DPL_P4)|(0<<DPL_P5));
 3f4:	60 e0       	ldi	r22, 0x00	; 0
 3f6:	8c e1       	ldi	r24, 0x1C	; 28
 3f8:	0e 94 4a 01 	call	0x294	; 0x294 <nrf24_configRegister>

    // Start listening
    nrf24_powerUpRx();
 3fc:	0c 94 98 01 	jmp	0x330	; 0x330 <nrf24_powerUpRx>

00000400 <nrf24_readRegister>:
    nrf24_csn_digitalWrite(HIGH);
}

/* Read single register from nrf24 */
void nrf24_readRegister(uint8_t reg, uint8_t* value, uint8_t len)
{
 400:	ef 92       	push	r14
 402:	ff 92       	push	r15
 404:	1f 93       	push	r17
 406:	cf 93       	push	r28
 408:	df 93       	push	r29
 40a:	1f 92       	push	r1
 40c:	cd b7       	in	r28, 0x3d	; 61
 40e:	de b7       	in	r29, 0x3e	; 62
 410:	18 2f       	mov	r17, r24
 412:	7b 01       	movw	r14, r22
    nrf24_csn_digitalWrite(LOW);
 414:	80 e0       	ldi	r24, 0x00	; 0
 416:	49 83       	std	Y+1, r20	; 0x01
 418:	0e 94 82 03 	call	0x704	; 0x704 <nrf24_csn_digitalWrite>
    spi_transfer(R_REGISTER | (REGISTER_MASK & reg));
 41c:	81 2f       	mov	r24, r17
 41e:	8f 71       	andi	r24, 0x1F	; 31
 420:	0e 94 5e 00 	call	0xbc	; 0xbc <spi_transfer>
    nrf24_transferSync1(value,value,len);
 424:	49 81       	ldd	r20, Y+1	; 0x01
 426:	b7 01       	movw	r22, r14
 428:	c7 01       	movw	r24, r14
 42a:	0e 94 c2 00 	call	0x184	; 0x184 <nrf24_transferSync1>
    nrf24_csn_digitalWrite(HIGH);
 42e:	81 e0       	ldi	r24, 0x01	; 1
}
 430:	0f 90       	pop	r0
 432:	df 91       	pop	r29
 434:	cf 91       	pop	r28
 436:	1f 91       	pop	r17
 438:	ff 90       	pop	r15
 43a:	ef 90       	pop	r14
void nrf24_readRegister(uint8_t reg, uint8_t* value, uint8_t len)
{
    nrf24_csn_digitalWrite(LOW);
    spi_transfer(R_REGISTER | (REGISTER_MASK & reg));
    nrf24_transferSync1(value,value,len);
    nrf24_csn_digitalWrite(HIGH);
 43c:	0c 94 82 03 	jmp	0x704	; 0x704 <nrf24_csn_digitalWrite>

00000440 <nrf24_retransmissionCount>:
    nrf24_configRegister(STATUS,(1<<RX_DR));
}

/* Returns the number of retransmissions occured for the last message */
uint8_t nrf24_retransmissionCount()
{
 440:	cf 93       	push	r28
 442:	df 93       	push	r29
 444:	1f 92       	push	r1
 446:	cd b7       	in	r28, 0x3d	; 61
 448:	de b7       	in	r29, 0x3e	; 62
    uint8_t rv;
    nrf24_readRegister(OBSERVE_TX,&rv,1);
 44a:	41 e0       	ldi	r20, 0x01	; 1
 44c:	be 01       	movw	r22, r28
 44e:	6f 5f       	subi	r22, 0xFF	; 255
 450:	7f 4f       	sbci	r23, 0xFF	; 255
 452:	88 e0       	ldi	r24, 0x08	; 8
 454:	0e 94 00 02 	call	0x400	; 0x400 <nrf24_readRegister>
    rv = rv & 0x0F;
 458:	89 81       	ldd	r24, Y+1	; 0x01
    return rv;
}
 45a:	8f 70       	andi	r24, 0x0F	; 15
 45c:	0f 90       	pop	r0
 45e:	df 91       	pop	r29
 460:	cf 91       	pop	r28
 462:	08 95       	ret

00000464 <nrf24_rxFifoEmpty>:
    return !nrf24_rxFifoEmpty();;
}

/* Checks if receive FIFO is empty or not */
uint8_t nrf24_rxFifoEmpty()
{
 464:	cf 93       	push	r28
 466:	df 93       	push	r29
 468:	1f 92       	push	r1
 46a:	cd b7       	in	r28, 0x3d	; 61
 46c:	de b7       	in	r29, 0x3e	; 62
    uint8_t fifoStatus;

    nrf24_readRegister(FIFO_STATUS,&fifoStatus,1);
 46e:	41 e0       	ldi	r20, 0x01	; 1
 470:	be 01       	movw	r22, r28
 472:	6f 5f       	subi	r22, 0xFF	; 255
 474:	7f 4f       	sbci	r23, 0xFF	; 255
 476:	87 e1       	ldi	r24, 0x17	; 23
 478:	0e 94 00 02 	call	0x400	; 0x400 <nrf24_readRegister>

    return (fifoStatus & (1 << RX_EMPTY));
 47c:	89 81       	ldd	r24, Y+1	; 0x01
}
 47e:	81 70       	andi	r24, 0x01	; 1
 480:	0f 90       	pop	r0
 482:	df 91       	pop	r29
 484:	cf 91       	pop	r28
 486:	08 95       	ret

00000488 <nrf24_dataReady>:
/* Checks if data is available for reading */
/* Returns 1 if data is ready ... */
uint8_t nrf24_dataReady()
{
    // See note in getData() function - just checking RX_DR isn't good enough
    uint8_t status = nrf24_getStatus();
 488:	0e 94 8f 00 	call	0x11e	; 0x11e <nrf24_getStatus>

    // We can short circuit on RX_DR, but if it's not set, we still need
    // to check the FIFO for any pending packets
    if ( status & (1 << RX_DR) )
 48c:	86 fd       	sbrc	r24, 6
 48e:	07 c0       	rjmp	.+14     	; 0x49e <nrf24_dataReady+0x16>
    {
        return 1;
    }

    return !nrf24_rxFifoEmpty();;
 490:	0e 94 32 02 	call	0x464	; 0x464 <nrf24_rxFifoEmpty>
 494:	91 e0       	ldi	r25, 0x01	; 1
 496:	88 23       	and	r24, r24
 498:	19 f0       	breq	.+6      	; 0x4a0 <nrf24_dataReady+0x18>
 49a:	90 e0       	ldi	r25, 0x00	; 0
 49c:	01 c0       	rjmp	.+2      	; 0x4a0 <nrf24_dataReady+0x18>

    // We can short circuit on RX_DR, but if it's not set, we still need
    // to check the FIFO for any pending packets
    if ( status & (1 << RX_DR) )
    {
        return 1;
 49e:	91 e0       	ldi	r25, 0x01	; 1
    }

    return !nrf24_rxFifoEmpty();;
}
 4a0:	89 2f       	mov	r24, r25
 4a2:	08 95       	ret

000004a4 <nrf24_writeRegister>:
    nrf24_csn_digitalWrite(HIGH);
}

/* Write to a single register of nrf24 */
void nrf24_writeRegister(uint8_t reg, uint8_t* value, uint8_t len)
{
 4a4:	ef 92       	push	r14
 4a6:	ff 92       	push	r15
 4a8:	1f 93       	push	r17
 4aa:	cf 93       	push	r28
 4ac:	df 93       	push	r29
 4ae:	1f 92       	push	r1
 4b0:	cd b7       	in	r28, 0x3d	; 61
 4b2:	de b7       	in	r29, 0x3e	; 62
 4b4:	18 2f       	mov	r17, r24
 4b6:	7b 01       	movw	r14, r22
    nrf24_csn_digitalWrite(LOW);
 4b8:	80 e0       	ldi	r24, 0x00	; 0
 4ba:	49 83       	std	Y+1, r20	; 0x01
 4bc:	0e 94 82 03 	call	0x704	; 0x704 <nrf24_csn_digitalWrite>
    spi_transfer(W_REGISTER | (REGISTER_MASK & reg));
 4c0:	81 2f       	mov	r24, r17
 4c2:	8f 71       	andi	r24, 0x1F	; 31
 4c4:	80 62       	ori	r24, 0x20	; 32
 4c6:	0e 94 5e 00 	call	0xbc	; 0xbc <spi_transfer>
    nrf24_transmitSync1(value,len);
 4ca:	49 81       	ldd	r20, Y+1	; 0x01
 4cc:	64 2f       	mov	r22, r20
 4ce:	c7 01       	movw	r24, r14
 4d0:	0e 94 0e 01 	call	0x21c	; 0x21c <nrf24_transmitSync1>
    nrf24_csn_digitalWrite(HIGH);
 4d4:	81 e0       	ldi	r24, 0x01	; 1
}
 4d6:	0f 90       	pop	r0
 4d8:	df 91       	pop	r29
 4da:	cf 91       	pop	r28
 4dc:	1f 91       	pop	r17
 4de:	ff 90       	pop	r15
 4e0:	ef 90       	pop	r14
void nrf24_writeRegister(uint8_t reg, uint8_t* value, uint8_t len)
{
    nrf24_csn_digitalWrite(LOW);
    spi_transfer(W_REGISTER | (REGISTER_MASK & reg));
    nrf24_transmitSync1(value,len);
    nrf24_csn_digitalWrite(HIGH);
 4e2:	0c 94 82 03 	jmp	0x704	; 0x704 <nrf24_csn_digitalWrite>

000004e6 <nrf24_tx_address>:
    return payload_len;
}

/* Set the TX address */
void nrf24_tx_address(uint8_t* adr)
{
 4e6:	cf 93       	push	r28
 4e8:	df 93       	push	r29
 4ea:	ec 01       	movw	r28, r24
    /* RX_ADDR_P0 must be set to the sending addr for auto ack to work. */
    nrf24_writeRegister(RX_ADDR_P0,adr,nrf24_ADDR_LEN);
 4ec:	45 e0       	ldi	r20, 0x05	; 5
 4ee:	bc 01       	movw	r22, r24
 4f0:	8a e0       	ldi	r24, 0x0A	; 10
 4f2:	0e 94 52 02 	call	0x4a4	; 0x4a4 <nrf24_writeRegister>
    nrf24_writeRegister(TX_ADDR,adr,nrf24_ADDR_LEN);
 4f6:	45 e0       	ldi	r20, 0x05	; 5
 4f8:	be 01       	movw	r22, r28
 4fa:	80 e1       	ldi	r24, 0x10	; 16
}
 4fc:	df 91       	pop	r29
 4fe:	cf 91       	pop	r28
/* Set the TX address */
void nrf24_tx_address(uint8_t* adr)
{
    /* RX_ADDR_P0 must be set to the sending addr for auto ack to work. */
    nrf24_writeRegister(RX_ADDR_P0,adr,nrf24_ADDR_LEN);
    nrf24_writeRegister(TX_ADDR,adr,nrf24_ADDR_LEN);
 500:	0c 94 52 02 	jmp	0x4a4	; 0x4a4 <nrf24_writeRegister>

00000504 <nrf24_rx_address>:
    nrf24_powerUpRx();
}

/* Set the RX address */
void nrf24_rx_address(uint8_t * adr)
{
 504:	cf 93       	push	r28
 506:	df 93       	push	r29
 508:	ec 01       	movw	r28, r24
    nrf24_ce_digitalWrite(LOW);
 50a:	80 e0       	ldi	r24, 0x00	; 0
 50c:	0e 94 7c 03 	call	0x6f8	; 0x6f8 <nrf24_ce_digitalWrite>
    nrf24_writeRegister(RX_ADDR_P1,adr,nrf24_ADDR_LEN);
 510:	45 e0       	ldi	r20, 0x05	; 5
 512:	be 01       	movw	r22, r28
 514:	8b e0       	ldi	r24, 0x0B	; 11
 516:	0e 94 52 02 	call	0x4a4	; 0x4a4 <nrf24_writeRegister>
    nrf24_ce_digitalWrite(HIGH);
 51a:	81 e0       	ldi	r24, 0x01	; 1
}
 51c:	df 91       	pop	r29
 51e:	cf 91       	pop	r28
/* Set the RX address */
void nrf24_rx_address(uint8_t * adr)
{
    nrf24_ce_digitalWrite(LOW);
    nrf24_writeRegister(RX_ADDR_P1,adr,nrf24_ADDR_LEN);
    nrf24_ce_digitalWrite(HIGH);
 520:	0c 94 7c 03 	jmp	0x6f8	; 0x6f8 <nrf24_ce_digitalWrite>

00000524 <nrf_inic>:
    spi_transfer(W_REGISTER | (REGISTER_MASK & reg));
    nrf24_transmitSync1(value,len);
    nrf24_csn_digitalWrite(HIGH);
}
void nrf_inic()
{
 524:	cf 93       	push	r28
 526:	df 93       	push	r29
 528:	cd b7       	in	r28, 0x3d	; 61
 52a:	de b7       	in	r29, 0x3e	; 62
 52c:	2a 97       	sbiw	r28, 0x0a	; 10
 52e:	0f b6       	in	r0, 0x3f	; 63
 530:	f8 94       	cli
 532:	de bf       	out	0x3e, r29	; 62
 534:	0f be       	out	0x3f, r0	; 63
 536:	cd bf       	out	0x3d, r28	; 61
    uint8_t tx_address[5] = {0xD7,0xD7,0xD7,0xD7,0xD7};
 538:	85 e0       	ldi	r24, 0x05	; 5
 53a:	ea e0       	ldi	r30, 0x0A	; 10
 53c:	f1 e0       	ldi	r31, 0x01	; 1
 53e:	de 01       	movw	r26, r28
 540:	16 96       	adiw	r26, 0x06	; 6
 542:	01 90       	ld	r0, Z+
 544:	0d 92       	st	X+, r0
 546:	8a 95       	dec	r24
 548:	e1 f7       	brne	.-8      	; 0x542 <nrf_inic+0x1e>
    uint8_t rx_address[5] = {0xE7,0xE7,0xE7,0xE7,0xE7};
 54a:	85 e0       	ldi	r24, 0x05	; 5
 54c:	ef e0       	ldi	r30, 0x0F	; 15
 54e:	f1 e0       	ldi	r31, 0x01	; 1
 550:	de 01       	movw	r26, r28
 552:	11 96       	adiw	r26, 0x01	; 1
 554:	01 90       	ld	r0, Z+
 556:	0d 92       	st	X+, r0
 558:	8a 95       	dec	r24
 55a:	e1 f7       	brne	.-8      	; 0x554 <nrf_inic+0x30>
    /* init hardware pins */
    nrf24_init();
 55c:	0e 94 53 00 	call	0xa6	; 0xa6 <nrf24_init>

    /* Channel #2 , payload length: 4 */
    nrf24_config(2,4);
 560:	64 e0       	ldi	r22, 0x04	; 4
 562:	82 e0       	ldi	r24, 0x02	; 2
 564:	0e 94 c7 01 	call	0x38e	; 0x38e <nrf24_config>

    /* Set the device addresses */
    nrf24_tx_address(tx_address);
 568:	ce 01       	movw	r24, r28
 56a:	06 96       	adiw	r24, 0x06	; 6
 56c:	0e 94 73 02 	call	0x4e6	; 0x4e6 <nrf24_tx_address>
    nrf24_rx_address(rx_address);
 570:	ce 01       	movw	r24, r28
 572:	01 96       	adiw	r24, 0x01	; 1
 574:	0e 94 82 02 	call	0x504	; 0x504 <nrf24_rx_address>
}
 578:	2a 96       	adiw	r28, 0x0a	; 10
 57a:	0f b6       	in	r0, 0x3f	; 63
 57c:	f8 94       	cli
 57e:	de bf       	out	0x3e, r29	; 62
 580:	0f be       	out	0x3f, r0	; 63
 582:	cd bf       	out	0x3d, r28	; 61
 584:	df 91       	pop	r29
 586:	cf 91       	pop	r28
 588:	08 95       	ret

0000058a <uart_init>:


void uart_init()
{

    UBRR0H = (unsigned char)(USART_UBBR_VALUE>>8);
 58a:	10 92 c5 00 	sts	0x00C5, r1
    UBRR0L = (unsigned char) (USART_UBBR_VALUE);
 58e:	89 e1       	ldi	r24, 0x19	; 25
 590:	80 93 c4 00 	sts	0x00C4, r24

    UCSR0C= 0b00000110;
 594:	86 e0       	ldi	r24, 0x06	; 6
 596:	80 93 c2 00 	sts	0x00C2, r24
    UCSR0B= 0b00011000;
 59a:	e1 ec       	ldi	r30, 0xC1	; 193
 59c:	f0 e0       	ldi	r31, 0x00	; 0
 59e:	88 e1       	ldi	r24, 0x18	; 24
 5a0:	80 83       	st	Z, r24
    UCSR0B|=0x80;
 5a2:	80 81       	ld	r24, Z
 5a4:	80 68       	ori	r24, 0x80	; 128
 5a6:	80 83       	st	Z, r24
    SREG |= 0x80;
 5a8:	8f b7       	in	r24, 0x3f	; 63
 5aa:	80 68       	ori	r24, 0x80	; 128
 5ac:	8f bf       	out	0x3f, r24	; 63
 5ae:	08 95       	ret

000005b0 <enviar>:
}

void enviar(char *Tx)
{
 5b0:	cf 93       	push	r28
 5b2:	df 93       	push	r29
 5b4:	9c 01       	movw	r18, r24
    int i=0;

    //strcat(Tx,"<");
    while(i<=strlen(Tx))
 5b6:	ec 01       	movw	r28, r24
 5b8:	07 c0       	rjmp	.+14     	; 0x5c8 <enviar+0x18>
    {
        while(!(UCSR0A & (1<<UDRE0)));
 5ba:	40 91 c0 00 	lds	r20, 0x00C0
 5be:	45 ff       	sbrs	r20, 5
 5c0:	fc cf       	rjmp	.-8      	; 0x5ba <enviar+0xa>
        UDR0=Tx[i];
 5c2:	49 91       	ld	r20, Y+
 5c4:	40 93 c6 00 	sts	0x00C6, r20
void enviar(char *Tx)
{
    int i=0;

    //strcat(Tx,"<");
    while(i<=strlen(Tx))
 5c8:	fc 01       	movw	r30, r24
 5ca:	01 90       	ld	r0, Z+
 5cc:	00 20       	and	r0, r0
 5ce:	e9 f7       	brne	.-6      	; 0x5ca <enviar+0x1a>
 5d0:	31 97       	sbiw	r30, 0x01	; 1
 5d2:	e8 1b       	sub	r30, r24
 5d4:	f9 0b       	sbc	r31, r25
    UCSR0B= 0b00011000;
    UCSR0B|=0x80;
    SREG |= 0x80;
}

void enviar(char *Tx)
 5d6:	ae 01       	movw	r20, r28
 5d8:	42 1b       	sub	r20, r18
 5da:	53 0b       	sbc	r21, r19
{
    int i=0;

    //strcat(Tx,"<");
    while(i<=strlen(Tx))
 5dc:	e4 17       	cp	r30, r20
 5de:	f5 07       	cpc	r31, r21
 5e0:	60 f7       	brcc	.-40     	; 0x5ba <enviar+0xa>
    {
        while(!(UCSR0A & (1<<UDRE0)));
        UDR0=Tx[i];
        i++;
    }
}
 5e2:	df 91       	pop	r29
 5e4:	cf 91       	pop	r28
 5e6:	08 95       	ret

000005e8 <__vector_18>:

ISR (USART_RX_vect)
{
 5e8:	1f 92       	push	r1
 5ea:	0f 92       	push	r0
 5ec:	0f b6       	in	r0, 0x3f	; 63
 5ee:	0f 92       	push	r0
 5f0:	11 24       	eor	r1, r1
 5f2:	8f 93       	push	r24
    rx=UDR0;
 5f4:	80 91 c6 00 	lds	r24, 0x00C6
 5f8:	80 93 86 01 	sts	0x0186, r24
    flag_rx=1;
 5fc:	81 e0       	ldi	r24, 0x01	; 1
 5fe:	80 93 80 01 	sts	0x0180, r24
}
 602:	8f 91       	pop	r24
 604:	0f 90       	pop	r0
 606:	0f be       	out	0x3f, r0	; 63
 608:	0f 90       	pop	r0
 60a:	1f 90       	pop	r1
 60c:	18 95       	reti

0000060e <processar_RX>:

void processar_RX()
{
 60e:	cf 93       	push	r28
 610:	df 93       	push	r29
 612:	cd b7       	in	r28, 0x3d	; 61
 614:	de b7       	in	r29, 0x3e	; 62
 616:	c8 5c       	subi	r28, 0xC8	; 200
 618:	d1 09       	sbc	r29, r1
 61a:	0f b6       	in	r0, 0x3f	; 63
 61c:	f8 94       	cli
 61e:	de bf       	out	0x3e, r29	; 62
 620:	0f be       	out	0x3f, r0	; 63
 622:	cd bf       	out	0x3d, r28	; 61
    char buffer_Tx[200];

    if(rx=='1')
 624:	80 91 86 01 	lds	r24, 0x0186
 628:	81 33       	cpi	r24, 0x31	; 49
 62a:	61 f4       	brne	.+24     	; 0x644 <processar_RX+0x36>
    {
        PORTB|=(1<<PB0);
 62c:	28 9a       	sbi	0x05, 0	; 5
        sprintf(buffer_Tx,"a");
 62e:	64 e1       	ldi	r22, 0x14	; 20
 630:	71 e0       	ldi	r23, 0x01	; 1
 632:	ce 01       	movw	r24, r28
 634:	01 96       	adiw	r24, 0x01	; 1
 636:	0e 94 9e 06 	call	0xd3c	; 0xd3c <strcpy>
        enviar(buffer_Tx);
 63a:	ce 01       	movw	r24, r28
 63c:	01 96       	adiw	r24, 0x01	; 1
 63e:	0e 94 d8 02 	call	0x5b0	; 0x5b0 <enviar>
 642:	01 c0       	rjmp	.+2      	; 0x646 <processar_RX+0x38>
    }
    else
        PORTB&=~(1<<PB0);
 644:	28 98       	cbi	0x05, 0	; 5
    flag_rx=0;
 646:	10 92 80 01 	sts	0x0180, r1
}
 64a:	c8 53       	subi	r28, 0x38	; 56
 64c:	df 4f       	sbci	r29, 0xFF	; 255
 64e:	0f b6       	in	r0, 0x3f	; 63
 650:	f8 94       	cli
 652:	de bf       	out	0x3e, r29	; 62
 654:	0f be       	out	0x3f, r0	; 63
 656:	cd bf       	out	0x3d, r28	; 61
 658:	df 91       	pop	r29
 65a:	cf 91       	pop	r28
 65c:	08 95       	ret

0000065e <nrf_enviar>:
char data_array[4];
uint8_t tx_address[5] = {0xE7,0xE7,0xE7,0xE7,0xE7};
uint8_t rx_address[5] = {0xD7,0xD7,0xD7,0xD7,0xD7};
/* ------------------------------------------------------------------------- */
void nrf_enviar(char buffer[])
{
 65e:	ef 92       	push	r14
 660:	ff 92       	push	r15
 662:	0f 93       	push	r16
 664:	1f 93       	push	r17
 666:	cf 93       	push	r28
 668:	df 93       	push	r29
 66a:	00 d0       	rcall	.+0      	; 0x66c <nrf_enviar+0xe>
 66c:	00 d0       	rcall	.+0      	; 0x66e <nrf_enviar+0x10>
 66e:	cd b7       	in	r28, 0x3d	; 61
 670:	de b7       	in	r29, 0x3e	; 62
 672:	8c 01       	movw	r16, r24
    char tamanho=0,i=0,flag_falha,data_array[4],temp;

    tamanho=strlen(buffer);
 674:	dc 01       	movw	r26, r24
 676:	0d 90       	ld	r0, X+
 678:	00 20       	and	r0, r0
 67a:	e9 f7       	brne	.-6      	; 0x676 <nrf_enviar+0x18>
 67c:	11 97       	sbiw	r26, 0x01	; 1
 67e:	ea 2e       	mov	r14, r26
 680:	e8 1a       	sub	r14, r24
uint8_t tx_address[5] = {0xE7,0xE7,0xE7,0xE7,0xE7};
uint8_t rx_address[5] = {0xD7,0xD7,0xD7,0xD7,0xD7};
/* ------------------------------------------------------------------------- */
void nrf_enviar(char buffer[])
{
    char tamanho=0,i=0,flag_falha,data_array[4],temp;
 682:	f1 2c       	mov	r15, r1

    tamanho=strlen(buffer);
    /* Fill the data buffer */
    while(i<=tamanho)
 684:	24 c0       	rjmp	.+72     	; 0x6ce <nrf_enviar+0x70>
    {
        data_array[0]=buffer[i];
 686:	f8 01       	movw	r30, r16
 688:	ef 0d       	add	r30, r15
 68a:	f1 1d       	adc	r31, r1
 68c:	f7 fc       	sbrc	r15, 7
 68e:	fa 95       	dec	r31
 690:	80 81       	ld	r24, Z
 692:	89 83       	std	Y+1, r24	; 0x01
        data_array[1]=buffer[i+1];
 694:	81 81       	ldd	r24, Z+1	; 0x01
 696:	8a 83       	std	Y+2, r24	; 0x02
        data_array[2]=buffer[i+2];
 698:	82 81       	ldd	r24, Z+2	; 0x02
 69a:	8b 83       	std	Y+3, r24	; 0x03
        data_array[3]=buffer[i+3];
 69c:	83 81       	ldd	r24, Z+3	; 0x03
 69e:	8c 83       	std	Y+4, r24	; 0x04
uint8_t q = 0;
char data_array[4];
uint8_t tx_address[5] = {0xE7,0xE7,0xE7,0xE7,0xE7};
uint8_t rx_address[5] = {0xD7,0xD7,0xD7,0xD7,0xD7};
/* ------------------------------------------------------------------------- */
void nrf_enviar(char buffer[])
 6a0:	84 e0       	ldi	r24, 0x04	; 4
 6a2:	f8 0e       	add	r15, r24
        data_array[1]=buffer[i+1];
        data_array[2]=buffer[i+2];
        data_array[3]=buffer[i+3];
        i=i+4;
        /* Automatically goes to TX mode */
        nrf24_send(data_array);
 6a4:	ce 01       	movw	r24, r28
 6a6:	01 96       	adiw	r24, 0x01	; 1
 6a8:	0e 94 74 01 	call	0x2e8	; 0x2e8 <nrf24_send>

        /* Wait for transmission to end */
        while(nrf24_isSending());
 6ac:	0e 94 a9 00 	call	0x152	; 0x152 <nrf24_isSending>
 6b0:	81 11       	cpse	r24, r1
 6b2:	fc cf       	rjmp	.-8      	; 0x6ac <nrf_enviar+0x4e>

        /* Make analysis on last tranmission attempt */
        temp = nrf24_lastMessageStatus();
 6b4:	0e 94 9d 00 	call	0x13a	; 0x13a <nrf24_lastMessageStatus>

        if(temp == NRF24_TRANSMISSON_OK)
 6b8:	81 11       	cpse	r24, r1
 6ba:	03 c0       	rjmp	.+6      	; 0x6c2 <nrf_enviar+0x64>
        {
            enviar("ok");
 6bc:	86 e1       	ldi	r24, 0x16	; 22
 6be:	91 e0       	ldi	r25, 0x01	; 1
 6c0:	04 c0       	rjmp	.+8      	; 0x6ca <nrf_enviar+0x6c>
        }
        else if(temp == NRF24_MESSAGE_LOST)
 6c2:	81 30       	cpi	r24, 0x01	; 1
 6c4:	21 f4       	brne	.+8      	; 0x6ce <nrf_enviar+0x70>
        {
            enviar("NRF24_MESSAGE_LOST");
 6c6:	89 e1       	ldi	r24, 0x19	; 25
 6c8:	91 e0       	ldi	r25, 0x01	; 1
 6ca:	0e 94 d8 02 	call	0x5b0	; 0x5b0 <enviar>
{
    char tamanho=0,i=0,flag_falha,data_array[4],temp;

    tamanho=strlen(buffer);
    /* Fill the data buffer */
    while(i<=tamanho)
 6ce:	ef 14       	cp	r14, r15
 6d0:	d4 f6       	brge	.-76     	; 0x686 <nrf_enviar+0x28>
            enviar("NRF24_MESSAGE_LOST");
        }
    }

    /* Optionally, go back to RX mode ... */
    nrf24_powerUpRx();
 6d2:	0e 94 98 01 	call	0x330	; 0x330 <nrf24_powerUpRx>
}
 6d6:	0f 90       	pop	r0
 6d8:	0f 90       	pop	r0
 6da:	0f 90       	pop	r0
 6dc:	0f 90       	pop	r0
 6de:	df 91       	pop	r29
 6e0:	cf 91       	pop	r28
 6e2:	1f 91       	pop	r17
 6e4:	0f 91       	pop	r16
 6e6:	ff 90       	pop	r15
 6e8:	ef 90       	pop	r14
 6ea:	08 95       	ret

000006ec <nrf24_setupPins>:
#define check_bit(reg,bit) (reg&(1<<bit))

/* ------------------------------------------------------------------------- */
void nrf24_setupPins()
{
    set_bit(DDRB,1); // CE output
 6ec:	21 9a       	sbi	0x04, 1	; 4
    set_bit(DDRB,2); // CSN output
 6ee:	22 9a       	sbi	0x04, 2	; 4
    set_bit(DDRB,5); // SCK output
 6f0:	25 9a       	sbi	0x04, 5	; 4
    set_bit(DDRB,3); // MOSI output
 6f2:	23 9a       	sbi	0x04, 3	; 4
    clr_bit(DDRB,4); // MISO input
 6f4:	24 98       	cbi	0x04, 4	; 4
 6f6:	08 95       	ret

000006f8 <nrf24_ce_digitalWrite>:
}
/* ------------------------------------------------------------------------- */
void nrf24_ce_digitalWrite(uint8_t state)
{
    if(state)
 6f8:	88 23       	and	r24, r24
 6fa:	11 f0       	breq	.+4      	; 0x700 <nrf24_ce_digitalWrite+0x8>
    {
        set_bit(PORTB,1);
 6fc:	29 9a       	sbi	0x05, 1	; 5
 6fe:	08 95       	ret
    }
    else
    {
        clr_bit(PORTB,1);
 700:	29 98       	cbi	0x05, 1	; 5
 702:	08 95       	ret

00000704 <nrf24_csn_digitalWrite>:
    }
}
/* ------------------------------------------------------------------------- */
void nrf24_csn_digitalWrite(uint8_t state)
{
    if(state)
 704:	88 23       	and	r24, r24
 706:	11 f0       	breq	.+4      	; 0x70c <nrf24_csn_digitalWrite+0x8>
    {
        set_bit(PORTB,2);
 708:	2a 9a       	sbi	0x05, 2	; 5
 70a:	08 95       	ret
    }
    else
    {
        clr_bit(PORTB,2);
 70c:	2a 98       	cbi	0x05, 2	; 5
 70e:	08 95       	ret

00000710 <nrf24_sck_digitalWrite>:
    }
}
/* ------------------------------------------------------------------------- */
void nrf24_sck_digitalWrite(uint8_t state)
{
    if(state)
 710:	88 23       	and	r24, r24
 712:	11 f0       	breq	.+4      	; 0x718 <nrf24_sck_digitalWrite+0x8>
    {
        set_bit(PORTB,5);
 714:	2d 9a       	sbi	0x05, 5	; 5
 716:	08 95       	ret
    }
    else
    {
        clr_bit(PORTB,5);
 718:	2d 98       	cbi	0x05, 5	; 5
 71a:	08 95       	ret

0000071c <nrf24_mosi_digitalWrite>:
    }
}
/* ------------------------------------------------------------------------- */
void nrf24_mosi_digitalWrite(uint8_t state)
{
    if(state)
 71c:	88 23       	and	r24, r24
 71e:	11 f0       	breq	.+4      	; 0x724 <nrf24_mosi_digitalWrite+0x8>
    {
        set_bit(PORTB,3);
 720:	2b 9a       	sbi	0x05, 3	; 5
 722:	08 95       	ret
    }
    else
    {
        clr_bit(PORTB,3);
 724:	2b 98       	cbi	0x05, 3	; 5
 726:	08 95       	ret

00000728 <nrf24_miso_digitalRead>:
    }
}
/* ------------------------------------------------------------------------- */
uint8_t nrf24_miso_digitalRead()
{
    return check_bit(PINB,4);
 728:	83 b1       	in	r24, 0x03	; 3
}
 72a:	80 71       	andi	r24, 0x10	; 16
 72c:	08 95       	ret

0000072e <xputc>:

void xputc (char c)
{
	if (_CR_CRLF && c == '\n') xputc('\r');		/* CR -> CRLF */

	if (outptr) {
 72e:	e0 91 7d 01 	lds	r30, 0x017D
 732:	f0 91 7e 01 	lds	r31, 0x017E
 736:	30 97       	sbiw	r30, 0x00	; 0
 738:	31 f0       	breq	.+12     	; 0x746 <xputc+0x18>
		*outptr++ = (unsigned char)c;
 73a:	81 93       	st	Z+, r24
 73c:	f0 93 7e 01 	sts	0x017E, r31
 740:	e0 93 7d 01 	sts	0x017D, r30
		return;
 744:	08 95       	ret
	}

	if (xfunc_out) xfunc_out((unsigned char)c);
 746:	e0 91 17 03 	lds	r30, 0x0317
 74a:	f0 91 18 03 	lds	r31, 0x0318
 74e:	30 97       	sbiw	r30, 0x00	; 0
 750:	09 f0       	breq	.+2      	; 0x754 <xputc+0x26>
 752:	09 94       	ijmp
 754:	08 95       	ret

00000756 <xputs>:
/*----------------------------------------------*/

void xputs (					/* Put a string to the default device */
	const char* str				/* Pointer to the string */
)
{
 756:	cf 93       	push	r28
 758:	df 93       	push	r29
 75a:	ec 01       	movw	r28, r24
	while (*str)
 75c:	02 c0       	rjmp	.+4      	; 0x762 <xputs+0xc>
		xputc(*str++);
 75e:	0e 94 97 03 	call	0x72e	; 0x72e <xputc>

void xputs (					/* Put a string to the default device */
	const char* str				/* Pointer to the string */
)
{
	while (*str)
 762:	89 91       	ld	r24, Y+
 764:	81 11       	cpse	r24, r1
 766:	fb cf       	rjmp	.-10     	; 0x75e <xputs+0x8>
		xputc(*str++);
}
 768:	df 91       	pop	r29
 76a:	cf 91       	pop	r28
 76c:	08 95       	ret

0000076e <xvprintf>:
static
void xvprintf (
	const char*	fmt,	/* Pointer to the format string */
	va_list arp			/* Pointer to arguments */
)
{
 76e:	2f 92       	push	r2
 770:	3f 92       	push	r3
 772:	4f 92       	push	r4
 774:	5f 92       	push	r5
 776:	6f 92       	push	r6
 778:	7f 92       	push	r7
 77a:	8f 92       	push	r8
 77c:	9f 92       	push	r9
 77e:	af 92       	push	r10
 780:	bf 92       	push	r11
 782:	cf 92       	push	r12
 784:	df 92       	push	r13
 786:	ef 92       	push	r14
 788:	ff 92       	push	r15
 78a:	0f 93       	push	r16
 78c:	1f 93       	push	r17
 78e:	cf 93       	push	r28
 790:	df 93       	push	r29
 792:	cd b7       	in	r28, 0x3d	; 61
 794:	de b7       	in	r29, 0x3e	; 62
 796:	65 97       	sbiw	r28, 0x15	; 21
 798:	0f b6       	in	r0, 0x3f	; 63
 79a:	f8 94       	cli
 79c:	de bf       	out	0x3e, r29	; 62
 79e:	0f be       	out	0x3f, r0	; 63
 7a0:	cd bf       	out	0x3d, r28	; 61
 7a2:	8c 01       	movw	r16, r24
 7a4:	3b 01       	movw	r6, r22
		do {
			d = (char)(v % r); v /= r;
			if (d > 9) d += (c == 'x') ? 0x27 : 0x07;
			s[i++] = d + '0';
		} while (v && i < sizeof(s));
		if (f & 8) s[i++] = '-';
 7a6:	3d e2       	ldi	r19, 0x2D	; 45
 7a8:	23 2e       	mov	r2, r19
	unsigned long v;
	char s[16], c, d, *p;


	for (;;) {
		c = *fmt++;					/* Get a char */
 7aa:	d8 01       	movw	r26, r16
 7ac:	8c 91       	ld	r24, X
		if (!c) break;				/* End of format? */
 7ae:	88 23       	and	r24, r24
 7b0:	09 f4       	brne	.+2      	; 0x7b4 <xvprintf+0x46>
 7b2:	5a c1       	rjmp	.+692    	; 0xa68 <__stack+0x169>
		if (c != '%') {				/* Pass through it if not a % sequense */
 7b4:	85 32       	cpi	r24, 0x25	; 37
 7b6:	19 f0       	breq	.+6      	; 0x7be <xvprintf+0x50>
	unsigned long v;
	char s[16], c, d, *p;


	for (;;) {
		c = *fmt++;					/* Get a char */
 7b8:	0f 5f       	subi	r16, 0xFF	; 255
 7ba:	1f 4f       	sbci	r17, 0xFF	; 255
 7bc:	a5 c0       	rjmp	.+330    	; 0x908 <__stack+0x9>
		if (!c) break;				/* End of format? */
		if (c != '%') {				/* Pass through it if not a % sequense */
			xputc(c); continue;
		}
		f = 0;
		c = *fmt++;					/* Get first char of the sequense */
 7be:	f8 01       	movw	r30, r16
 7c0:	31 80       	ldd	r3, Z+1	; 0x01
		if (c == '0') {				/* Flag: '0' padded */
 7c2:	f0 e3       	ldi	r31, 0x30	; 48
 7c4:	3f 12       	cpse	r3, r31
 7c6:	09 c0       	rjmp	.+18     	; 0x7da <xvprintf+0x6c>
			f = 1; c = *fmt++;
 7c8:	d8 01       	movw	r26, r16
 7ca:	12 96       	adiw	r26, 0x02	; 2
 7cc:	3c 90       	ld	r3, X
 7ce:	0d 5f       	subi	r16, 0xFD	; 253
 7d0:	1f 4f       	sbci	r17, 0xFF	; 255
 7d2:	ee 24       	eor	r14, r14
 7d4:	e3 94       	inc	r14
 7d6:	f1 2c       	mov	r15, r1
 7d8:	0f c0       	rjmp	.+30     	; 0x7f8 <xvprintf+0x8a>
		} else {
			if (c == '-') {			/* Flag: left justified */
 7da:	bd e2       	ldi	r27, 0x2D	; 45
 7dc:	3b 16       	cp	r3, r27
 7de:	29 f0       	breq	.+10     	; 0x7ea <xvprintf+0x7c>
		if (!c) break;				/* End of format? */
		if (c != '%') {				/* Pass through it if not a % sequense */
			xputc(c); continue;
		}
		f = 0;
		c = *fmt++;					/* Get first char of the sequense */
 7e0:	0e 5f       	subi	r16, 0xFE	; 254
 7e2:	1f 4f       	sbci	r17, 0xFF	; 255
		c = *fmt++;					/* Get a char */
		if (!c) break;				/* End of format? */
		if (c != '%') {				/* Pass through it if not a % sequense */
			xputc(c); continue;
		}
		f = 0;
 7e4:	e1 2c       	mov	r14, r1
 7e6:	f1 2c       	mov	r15, r1
 7e8:	07 c0       	rjmp	.+14     	; 0x7f8 <xvprintf+0x8a>
		c = *fmt++;					/* Get first char of the sequense */
		if (c == '0') {				/* Flag: '0' padded */
			f = 1; c = *fmt++;
		} else {
			if (c == '-') {			/* Flag: left justified */
				f = 2; c = *fmt++;
 7ea:	f8 01       	movw	r30, r16
 7ec:	32 80       	ldd	r3, Z+2	; 0x02
 7ee:	0d 5f       	subi	r16, 0xFD	; 253
 7f0:	1f 4f       	sbci	r17, 0xFF	; 255
 7f2:	92 e0       	ldi	r25, 0x02	; 2
 7f4:	e9 2e       	mov	r14, r25
 7f6:	f1 2c       	mov	r15, r1
			}
		}
		for (w = 0; c >= '0' && c <= '9'; c = *fmt++)	/* Minimum width */
 7f8:	c1 2c       	mov	r12, r1
 7fa:	d1 2c       	mov	r13, r1
 7fc:	11 c0       	rjmp	.+34     	; 0x820 <xvprintf+0xb2>
			w = w * 10 + c - '0';
 7fe:	8a e0       	ldi	r24, 0x0A	; 10
 800:	96 01       	movw	r18, r12
 802:	82 9f       	mul	r24, r18
 804:	60 01       	movw	r12, r0
 806:	83 9f       	mul	r24, r19
 808:	d0 0c       	add	r13, r0
 80a:	11 24       	eor	r1, r1
 80c:	c3 0c       	add	r12, r3
 80e:	d1 1c       	adc	r13, r1
 810:	37 fc       	sbrc	r3, 7
 812:	da 94       	dec	r13
 814:	90 e3       	ldi	r25, 0x30	; 48
 816:	c9 1a       	sub	r12, r25
 818:	d1 08       	sbc	r13, r1
		} else {
			if (c == '-') {			/* Flag: left justified */
				f = 2; c = *fmt++;
			}
		}
		for (w = 0; c >= '0' && c <= '9'; c = *fmt++)	/* Minimum width */
 81a:	d8 01       	movw	r26, r16
 81c:	3d 90       	ld	r3, X+
 81e:	8d 01       	movw	r16, r26
 820:	83 2d       	mov	r24, r3
 822:	80 53       	subi	r24, 0x30	; 48
 824:	8a 30       	cpi	r24, 0x0A	; 10
 826:	58 f3       	brcs	.-42     	; 0x7fe <xvprintf+0x90>
			w = w * 10 + c - '0';
		if (c == 'l' || c == 'L') {	/* Prefix: Size is long int */
 828:	bc e6       	ldi	r27, 0x6C	; 108
 82a:	3b 16       	cp	r3, r27
 82c:	19 f0       	breq	.+6      	; 0x834 <xvprintf+0xc6>
 82e:	ec e4       	ldi	r30, 0x4C	; 76
 830:	3e 12       	cpse	r3, r30
 832:	05 c0       	rjmp	.+10     	; 0x83e <xvprintf+0xd0>
			f |= 4; c = *fmt++;
 834:	68 94       	set
 836:	e2 f8       	bld	r14, 2
 838:	d8 01       	movw	r26, r16
 83a:	3d 90       	ld	r3, X+
 83c:	8d 01       	movw	r16, r26
		}
		if (!c) break;				/* End of format? */
 83e:	33 20       	and	r3, r3
 840:	09 f4       	brne	.+2      	; 0x844 <xvprintf+0xd6>
 842:	12 c1       	rjmp	.+548    	; 0xa68 <__stack+0x169>
		d = c;
		if (d >= 'a') d -= 0x20;
 844:	b0 e6       	ldi	r27, 0x60	; 96
 846:	23 2d       	mov	r18, r3
 848:	b3 15       	cp	r27, r3
 84a:	0c f4       	brge	.+2      	; 0x84e <xvprintf+0xe0>
 84c:	20 52       	subi	r18, 0x20	; 32
		switch (d) {				/* Type is... */
 84e:	2f 34       	cpi	r18, 0x4F	; 79
 850:	09 f4       	brne	.+2      	; 0x854 <xvprintf+0xe6>
 852:	60 c0       	rjmp	.+192    	; 0x914 <__stack+0x15>
 854:	4c f4       	brge	.+18     	; 0x868 <xvprintf+0xfa>
 856:	23 34       	cpi	r18, 0x43	; 67
 858:	09 f4       	brne	.+2      	; 0x85c <xvprintf+0xee>
 85a:	48 c0       	rjmp	.+144    	; 0x8ec <xvprintf+0x17e>
 85c:	24 34       	cpi	r18, 0x44	; 68
 85e:	69 f0       	breq	.+26     	; 0x87a <xvprintf+0x10c>
 860:	22 34       	cpi	r18, 0x42	; 66
 862:	09 f0       	breq	.+2      	; 0x866 <xvprintf+0xf8>
 864:	50 c0       	rjmp	.+160    	; 0x906 <__stack+0x7>
 866:	53 c0       	rjmp	.+166    	; 0x90e <__stack+0xf>
 868:	25 35       	cpi	r18, 0x55	; 85
 86a:	39 f0       	breq	.+14     	; 0x87a <xvprintf+0x10c>
 86c:	28 35       	cpi	r18, 0x58	; 88
 86e:	09 f4       	brne	.+2      	; 0x872 <xvprintf+0x104>
 870:	47 c0       	rjmp	.+142    	; 0x900 <__stack+0x1>
 872:	23 35       	cpi	r18, 0x53	; 83
 874:	09 f0       	breq	.+2      	; 0x878 <xvprintf+0x10a>
 876:	47 c0       	rjmp	.+142    	; 0x906 <__stack+0x7>
 878:	03 c0       	rjmp	.+6      	; 0x880 <xvprintf+0x112>
			r = 2; break;
		case 'O' :					/* Octal */
			r = 8; break;
		case 'D' :					/* Signed decimal */
		case 'U' :					/* Unsigned decimal */
			r = 10; break;
 87a:	4a e0       	ldi	r20, 0x0A	; 10
 87c:	50 e0       	ldi	r21, 0x00	; 0
 87e:	4c c0       	rjmp	.+152    	; 0x918 <__stack+0x19>
		if (!c) break;				/* End of format? */
		d = c;
		if (d >= 'a') d -= 0x20;
		switch (d) {				/* Type is... */
		case 'S' :					/* String */
			p = va_arg(arp, char*);
 880:	53 01       	movw	r10, r6
 882:	e2 e0       	ldi	r30, 0x02	; 2
 884:	ae 0e       	add	r10, r30
 886:	b1 1c       	adc	r11, r1
 888:	d3 01       	movw	r26, r6
 88a:	5c 90       	ld	r5, X
 88c:	11 96       	adiw	r26, 0x01	; 1
 88e:	9c 91       	ld	r25, X
 890:	25 2d       	mov	r18, r5
 892:	39 2f       	mov	r19, r25
			for (j = 0; p[j]; j++) ;
 894:	f9 01       	movw	r30, r18
    xprintf("%c", 'a');				"a"
    xprintf("%f", 10.0);            <xprintf lacks floating point support>
*/

static
void xvprintf (
 896:	4f 01       	movw	r8, r30
 898:	82 1a       	sub	r8, r18
 89a:	93 0a       	sbc	r9, r19
		d = c;
		if (d >= 'a') d -= 0x20;
		switch (d) {				/* Type is... */
		case 'S' :					/* String */
			p = va_arg(arp, char*);
			for (j = 0; p[j]; j++) ;
 89c:	81 91       	ld	r24, Z+
 89e:	81 11       	cpse	r24, r1
 8a0:	fa cf       	rjmp	.-12     	; 0x896 <xvprintf+0x128>
 8a2:	07 c0       	rjmp	.+14     	; 0x8b2 <xvprintf+0x144>
			while (!(f & 2) && j++ < w) xputc(' ');
 8a4:	80 e2       	ldi	r24, 0x20	; 32
 8a6:	9d 8b       	std	Y+21, r25	; 0x15
 8a8:	0e 94 97 03 	call	0x72e	; 0x72e <xputc>
 8ac:	43 01       	movw	r8, r6
 8ae:	9d 89       	ldd	r25, Y+21	; 0x15
 8b0:	03 c0       	rjmp	.+6      	; 0x8b8 <xvprintf+0x14a>
 8b2:	b2 e0       	ldi	r27, 0x02	; 2
 8b4:	eb 22       	and	r14, r27
 8b6:	ff 24       	eor	r15, r15
 8b8:	e1 14       	cp	r14, r1
 8ba:	f1 04       	cpc	r15, r1
 8bc:	41 f4       	brne	.+16     	; 0x8ce <xvprintf+0x160>
 8be:	34 01       	movw	r6, r8
 8c0:	ef ef       	ldi	r30, 0xFF	; 255
 8c2:	6e 1a       	sub	r6, r30
 8c4:	7e 0a       	sbc	r7, r30
 8c6:	8c 14       	cp	r8, r12
 8c8:	9d 04       	cpc	r9, r13
 8ca:	60 f3       	brcs	.-40     	; 0x8a4 <xvprintf+0x136>
 8cc:	43 01       	movw	r8, r6
			xputs(p);
 8ce:	85 2d       	mov	r24, r5
 8d0:	0e 94 ab 03 	call	0x756	; 0x756 <xputs>
			while (j++ < w) xputc(' ');
 8d4:	06 c0       	rjmp	.+12     	; 0x8e2 <xvprintf+0x174>
 8d6:	80 e2       	ldi	r24, 0x20	; 32
 8d8:	0e 94 97 03 	call	0x72e	; 0x72e <xputc>
 8dc:	ff ef       	ldi	r31, 0xFF	; 255
 8de:	8f 1a       	sub	r8, r31
 8e0:	9f 0a       	sbc	r9, r31
 8e2:	8c 14       	cp	r8, r12
 8e4:	9d 04       	cpc	r9, r13
 8e6:	b8 f3       	brcs	.-18     	; 0x8d6 <xvprintf+0x168>
		if (!c) break;				/* End of format? */
		d = c;
		if (d >= 'a') d -= 0x20;
		switch (d) {				/* Type is... */
		case 'S' :					/* String */
			p = va_arg(arp, char*);
 8e8:	35 01       	movw	r6, r10
 8ea:	5f cf       	rjmp	.-322    	; 0x7aa <xvprintf+0x3c>
			while (!(f & 2) && j++ < w) xputc(' ');
			xputs(p);
			while (j++ < w) xputc(' ');
			continue;
		case 'C' :					/* Character */
			xputc((char)va_arg(arp, int)); continue;
 8ec:	73 01       	movw	r14, r6
 8ee:	22 e0       	ldi	r18, 0x02	; 2
 8f0:	e2 0e       	add	r14, r18
 8f2:	f1 1c       	adc	r15, r1
 8f4:	d3 01       	movw	r26, r6
 8f6:	8c 91       	ld	r24, X
 8f8:	0e 94 97 03 	call	0x72e	; 0x72e <xputc>
 8fc:	37 01       	movw	r6, r14
 8fe:	55 cf       	rjmp	.-342    	; 0x7aa <xvprintf+0x3c>
			r = 8; break;
		case 'D' :					/* Signed decimal */
		case 'U' :					/* Unsigned decimal */
			r = 10; break;
		case 'X' :					/* Hexdecimal */
			r = 16; break;
 900:	40 e1       	ldi	r20, 0x10	; 16
 902:	50 e0       	ldi	r21, 0x00	; 0
 904:	09 c0       	rjmp	.+18     	; 0x918 <__stack+0x19>
		default:					/* Unknown type (passthrough) */
			xputc(c); continue;
 906:	83 2d       	mov	r24, r3
 908:	0e 94 97 03 	call	0x72e	; 0x72e <xputc>
 90c:	4e cf       	rjmp	.-356    	; 0x7aa <xvprintf+0x3c>
			while (j++ < w) xputc(' ');
			continue;
		case 'C' :					/* Character */
			xputc((char)va_arg(arp, int)); continue;
		case 'B' :					/* Binary */
			r = 2; break;
 90e:	42 e0       	ldi	r20, 0x02	; 2
 910:	50 e0       	ldi	r21, 0x00	; 0
 912:	02 c0       	rjmp	.+4      	; 0x918 <__stack+0x19>
		case 'O' :					/* Octal */
			r = 8; break;
 914:	48 e0       	ldi	r20, 0x08	; 8
 916:	50 e0       	ldi	r21, 0x00	; 0
		default:					/* Unknown type (passthrough) */
			xputc(c); continue;
		}

		/* Get an argument and put it in numeral */
		v = (f & 4) ? va_arg(arp, long) : ((d == 'D') ? (long)va_arg(arp, int) : (long)va_arg(arp, unsigned int));
 918:	e2 fe       	sbrs	r14, 2
 91a:	0c c0       	rjmp	.+24     	; 0x934 <__stack+0x35>
 91c:	43 01       	movw	r8, r6
 91e:	b4 e0       	ldi	r27, 0x04	; 4
 920:	8b 0e       	add	r8, r27
 922:	91 1c       	adc	r9, r1
 924:	f3 01       	movw	r30, r6
 926:	60 81       	ld	r22, Z
 928:	71 81       	ldd	r23, Z+1	; 0x01
 92a:	82 81       	ldd	r24, Z+2	; 0x02
 92c:	93 81       	ldd	r25, Z+3	; 0x03
		if (d == 'D' && (v & 0x80000000)) {
 92e:	24 34       	cpi	r18, 0x44	; 68
 930:	f9 f4       	brne	.+62     	; 0x970 <__stack+0x71>
 932:	13 c0       	rjmp	.+38     	; 0x95a <__stack+0x5b>
 934:	c3 01       	movw	r24, r6
 936:	02 96       	adiw	r24, 0x02	; 2
		default:					/* Unknown type (passthrough) */
			xputc(c); continue;
		}

		/* Get an argument and put it in numeral */
		v = (f & 4) ? va_arg(arp, long) : ((d == 'D') ? (long)va_arg(arp, int) : (long)va_arg(arp, unsigned int));
 938:	4c 01       	movw	r8, r24
 93a:	24 34       	cpi	r18, 0x44	; 68
 93c:	41 f4       	brne	.+16     	; 0x94e <__stack+0x4f>
 93e:	d3 01       	movw	r26, r6
 940:	6d 91       	ld	r22, X+
 942:	7c 91       	ld	r23, X
 944:	88 27       	eor	r24, r24
 946:	77 fd       	sbrc	r23, 7
 948:	80 95       	com	r24
 94a:	98 2f       	mov	r25, r24
 94c:	06 c0       	rjmp	.+12     	; 0x95a <__stack+0x5b>
 94e:	f3 01       	movw	r30, r6
 950:	60 81       	ld	r22, Z
 952:	71 81       	ldd	r23, Z+1	; 0x01
 954:	80 e0       	ldi	r24, 0x00	; 0
 956:	90 e0       	ldi	r25, 0x00	; 0
 958:	0b c0       	rjmp	.+22     	; 0x970 <__stack+0x71>
		if (d == 'D' && (v & 0x80000000)) {
 95a:	97 ff       	sbrs	r25, 7
 95c:	09 c0       	rjmp	.+18     	; 0x970 <__stack+0x71>
			v = 0 - v;
 95e:	90 95       	com	r25
 960:	80 95       	com	r24
 962:	70 95       	com	r23
 964:	61 95       	neg	r22
 966:	7f 4f       	sbci	r23, 0xFF	; 255
 968:	8f 4f       	sbci	r24, 0xFF	; 255
 96a:	9f 4f       	sbci	r25, 0xFF	; 255
			f |= 8;
 96c:	68 94       	set
 96e:	e3 f8       	bld	r14, 3
 970:	9e 01       	movw	r18, r28
 972:	2f 5f       	subi	r18, 0xFF	; 255
 974:	3f 4f       	sbci	r19, 0xFF	; 255
 976:	3c 8b       	std	Y+20, r19	; 0x14
 978:	2b 8b       	std	Y+19, r18	; 0x13
		}
		i = 0;
 97a:	a1 2c       	mov	r10, r1
 97c:	b1 2c       	mov	r11, r1
		do {
			d = (char)(v % r); v /= r;
 97e:	2a 01       	movw	r4, r20
 980:	61 2c       	mov	r6, r1
 982:	71 2c       	mov	r7, r1
 984:	02 c0       	rjmp	.+4      	; 0x98a <__stack+0x8b>
			if (d > 9) d += (c == 'x') ? 0x27 : 0x07;
			s[i++] = d + '0';
 986:	a9 88       	ldd	r10, Y+17	; 0x11
 988:	ba 88       	ldd	r11, Y+18	; 0x12
			v = 0 - v;
			f |= 8;
		}
		i = 0;
		do {
			d = (char)(v % r); v /= r;
 98a:	a3 01       	movw	r20, r6
 98c:	92 01       	movw	r18, r4
 98e:	0e 94 7c 06 	call	0xcf8	; 0xcf8 <__udivmodsi4>
 992:	f6 2f       	mov	r31, r22
 994:	e6 2f       	mov	r30, r22
 996:	ca 01       	movw	r24, r20
 998:	b9 01       	movw	r22, r18
			if (d > 9) d += (c == 'x') ? 0x27 : 0x07;
 99a:	fa 30       	cpi	r31, 0x0A	; 10
 99c:	3c f0       	brlt	.+14     	; 0x9ac <__stack+0xad>
 99e:	a8 e7       	ldi	r26, 0x78	; 120
 9a0:	3a 12       	cpse	r3, r26
 9a2:	02 c0       	rjmp	.+4      	; 0x9a8 <__stack+0xa9>
 9a4:	f7 e2       	ldi	r31, 0x27	; 39
 9a6:	01 c0       	rjmp	.+2      	; 0x9aa <__stack+0xab>
 9a8:	f7 e0       	ldi	r31, 0x07	; 7
 9aa:	ef 0f       	add	r30, r31
			s[i++] = d + '0';
 9ac:	e0 5d       	subi	r30, 0xD0	; 208
 9ae:	ab 89       	ldd	r26, Y+19	; 0x13
 9b0:	bc 89       	ldd	r27, Y+20	; 0x14
 9b2:	ed 93       	st	X+, r30
 9b4:	bc 8b       	std	Y+20, r27	; 0x14
 9b6:	ab 8b       	std	Y+19, r26	; 0x13
 9b8:	f5 01       	movw	r30, r10
 9ba:	31 96       	adiw	r30, 0x01	; 1
 9bc:	fa 8b       	std	Y+18, r31	; 0x12
 9be:	e9 8b       	std	Y+17, r30	; 0x11
		} while (v && i < sizeof(s));
 9c0:	23 2b       	or	r18, r19
 9c2:	24 2b       	or	r18, r20
 9c4:	25 2b       	or	r18, r21
 9c6:	29 f0       	breq	.+10     	; 0x9d2 <__stack+0xd3>
 9c8:	70 97       	sbiw	r30, 0x10	; 16
 9ca:	e9 f6       	brne	.-70     	; 0x986 <__stack+0x87>
 9cc:	8f e0       	ldi	r24, 0x0F	; 15
 9ce:	a8 2e       	mov	r10, r24
 9d0:	b1 2c       	mov	r11, r1
		if (f & 8) s[i++] = '-';
 9d2:	e3 fe       	sbrs	r14, 3
 9d4:	0e c0       	rjmp	.+28     	; 0x9f2 <__stack+0xf3>
 9d6:	e1 e0       	ldi	r30, 0x01	; 1
 9d8:	f0 e0       	ldi	r31, 0x00	; 0
 9da:	ec 0f       	add	r30, r28
 9dc:	fd 1f       	adc	r31, r29
 9de:	29 89       	ldd	r18, Y+17	; 0x11
 9e0:	3a 89       	ldd	r19, Y+18	; 0x12
 9e2:	e2 0f       	add	r30, r18
 9e4:	f3 1f       	adc	r31, r19
 9e6:	20 82       	st	Z, r2
 9e8:	95 01       	movw	r18, r10
 9ea:	2e 5f       	subi	r18, 0xFE	; 254
 9ec:	3f 4f       	sbci	r19, 0xFF	; 255
 9ee:	3a 8b       	std	Y+18, r19	; 0x12
 9f0:	29 8b       	std	Y+17, r18	; 0x11
		j = i; d = (f & 1) ? '0' : ' ';
 9f2:	e0 fe       	sbrs	r14, 0
 9f4:	02 c0       	rjmp	.+4      	; 0x9fa <__stack+0xfb>
 9f6:	90 e3       	ldi	r25, 0x30	; 48
 9f8:	01 c0       	rjmp	.+2      	; 0x9fc <__stack+0xfd>
 9fa:	90 e2       	ldi	r25, 0x20	; 32
 9fc:	a9 88       	ldd	r10, Y+17	; 0x11
 9fe:	ba 88       	ldd	r11, Y+18	; 0x12
		while (!(f & 2) && j++ < w) xputc(d);
 a00:	32 e0       	ldi	r19, 0x02	; 2
 a02:	e3 22       	and	r14, r19
 a04:	ff 24       	eor	r15, r15
 a06:	06 c0       	rjmp	.+12     	; 0xa14 <__stack+0x115>
 a08:	89 2f       	mov	r24, r25
 a0a:	9d 8b       	std	Y+21, r25	; 0x15
 a0c:	0e 94 97 03 	call	0x72e	; 0x72e <xputc>
 a10:	53 01       	movw	r10, r6
 a12:	9d 89       	ldd	r25, Y+21	; 0x15
 a14:	e1 14       	cp	r14, r1
 a16:	f1 04       	cpc	r15, r1
 a18:	41 f4       	brne	.+16     	; 0xa2a <__stack+0x12b>
 a1a:	35 01       	movw	r6, r10
 a1c:	8f ef       	ldi	r24, 0xFF	; 255
 a1e:	68 1a       	sub	r6, r24
 a20:	78 0a       	sbc	r7, r24
 a22:	ac 14       	cp	r10, r12
 a24:	bd 04       	cpc	r11, r13
 a26:	80 f3       	brcs	.-32     	; 0xa08 <__stack+0x109>
 a28:	53 01       	movw	r10, r6
		do xputc(s[--i]); while(i);
 a2a:	29 89       	ldd	r18, Y+17	; 0x11
 a2c:	3a 89       	ldd	r19, Y+18	; 0x12
 a2e:	21 50       	subi	r18, 0x01	; 1
 a30:	31 09       	sbc	r19, r1
 a32:	3a 8b       	std	Y+18, r19	; 0x12
 a34:	29 8b       	std	Y+17, r18	; 0x11
    xprintf("%c", 'a');				"a"
    xprintf("%f", 10.0);            <xprintf lacks floating point support>
*/

static
void xvprintf (
 a36:	e1 e0       	ldi	r30, 0x01	; 1
 a38:	f0 e0       	ldi	r31, 0x00	; 0
 a3a:	ec 0f       	add	r30, r28
 a3c:	fd 1f       	adc	r31, r29
 a3e:	e2 0f       	add	r30, r18
 a40:	f3 1f       	adc	r31, r19
			s[i++] = d + '0';
		} while (v && i < sizeof(s));
		if (f & 8) s[i++] = '-';
		j = i; d = (f & 1) ? '0' : ' ';
		while (!(f & 2) && j++ < w) xputc(d);
		do xputc(s[--i]); while(i);
 a42:	80 81       	ld	r24, Z
 a44:	0e 94 97 03 	call	0x72e	; 0x72e <xputc>
 a48:	29 89       	ldd	r18, Y+17	; 0x11
 a4a:	3a 89       	ldd	r19, Y+18	; 0x12
 a4c:	23 2b       	or	r18, r19
 a4e:	69 f7       	brne	.-38     	; 0xa2a <__stack+0x12b>
 a50:	06 c0       	rjmp	.+12     	; 0xa5e <__stack+0x15f>
		while (j++ < w) xputc(' ');
 a52:	80 e2       	ldi	r24, 0x20	; 32
 a54:	0e 94 97 03 	call	0x72e	; 0x72e <xputc>
 a58:	3f ef       	ldi	r19, 0xFF	; 255
 a5a:	a3 1a       	sub	r10, r19
 a5c:	b3 0a       	sbc	r11, r19
 a5e:	ac 14       	cp	r10, r12
 a60:	bd 04       	cpc	r11, r13
 a62:	b8 f3       	brcs	.-18     	; 0xa52 <__stack+0x153>
 a64:	34 01       	movw	r6, r8
 a66:	a1 ce       	rjmp	.-702    	; 0x7aa <xvprintf+0x3c>
	}
}
 a68:	65 96       	adiw	r28, 0x15	; 21
 a6a:	0f b6       	in	r0, 0x3f	; 63
 a6c:	f8 94       	cli
 a6e:	de bf       	out	0x3e, r29	; 62
 a70:	0f be       	out	0x3f, r0	; 63
 a72:	cd bf       	out	0x3d, r28	; 61
 a74:	df 91       	pop	r29
 a76:	cf 91       	pop	r28
 a78:	1f 91       	pop	r17
 a7a:	0f 91       	pop	r16
 a7c:	ff 90       	pop	r15
 a7e:	ef 90       	pop	r14
 a80:	df 90       	pop	r13
 a82:	cf 90       	pop	r12
 a84:	bf 90       	pop	r11
 a86:	af 90       	pop	r10
 a88:	9f 90       	pop	r9
 a8a:	8f 90       	pop	r8
 a8c:	7f 90       	pop	r7
 a8e:	6f 90       	pop	r6
 a90:	5f 90       	pop	r5
 a92:	4f 90       	pop	r4
 a94:	3f 90       	pop	r3
 a96:	2f 90       	pop	r2
 a98:	08 95       	ret

00000a9a <xfputs>:

void xfputs (					/* Put a string to the specified device */
	void(*func)(unsigned char),	/* Pointer to the output function */
	const char*	str				/* Pointer to the string */
)
{
 a9a:	0f 93       	push	r16
 a9c:	1f 93       	push	r17
 a9e:	cf 93       	push	r28
 aa0:	df 93       	push	r29
	void (*pf)(unsigned char);


	pf = xfunc_out;		/* Save current output device */
 aa2:	00 91 17 03 	lds	r16, 0x0317
 aa6:	10 91 18 03 	lds	r17, 0x0318
	xfunc_out = func;	/* Switch output to specified device */
 aaa:	90 93 18 03 	sts	0x0318, r25
 aae:	80 93 17 03 	sts	0x0317, r24
 ab2:	eb 01       	movw	r28, r22
	while (*str)		/* Put the string */
 ab4:	02 c0       	rjmp	.+4      	; 0xaba <xfputs+0x20>
		xputc(*str++);
 ab6:	0e 94 97 03 	call	0x72e	; 0x72e <xputc>
	void (*pf)(unsigned char);


	pf = xfunc_out;		/* Save current output device */
	xfunc_out = func;	/* Switch output to specified device */
	while (*str)		/* Put the string */
 aba:	89 91       	ld	r24, Y+
 abc:	81 11       	cpse	r24, r1
 abe:	fb cf       	rjmp	.-10     	; 0xab6 <xfputs+0x1c>
		xputc(*str++);
	xfunc_out = pf;		/* Restore output device */
 ac0:	10 93 18 03 	sts	0x0318, r17
 ac4:	00 93 17 03 	sts	0x0317, r16
}
 ac8:	df 91       	pop	r29
 aca:	cf 91       	pop	r28
 acc:	1f 91       	pop	r17
 ace:	0f 91       	pop	r16
 ad0:	08 95       	ret

00000ad2 <xprintf>:

void xprintf (			/* Put a formatted string to the default device */
	const char*	fmt,	/* Pointer to the format string */
	...					/* Optional arguments */
)
{
 ad2:	cf 93       	push	r28
 ad4:	df 93       	push	r29
 ad6:	cd b7       	in	r28, 0x3d	; 61
 ad8:	de b7       	in	r29, 0x3e	; 62
 ada:	fe 01       	movw	r30, r28
 adc:	35 96       	adiw	r30, 0x05	; 5
 ade:	81 91       	ld	r24, Z+
 ae0:	91 91       	ld	r25, Z+
	va_list arp;


	va_start(arp, fmt);
	xvprintf(fmt, arp);
 ae2:	bf 01       	movw	r22, r30
 ae4:	0e 94 b7 03 	call	0x76e	; 0x76e <xvprintf>
	va_end(arp);
}
 ae8:	df 91       	pop	r29
 aea:	cf 91       	pop	r28
 aec:	08 95       	ret

00000aee <xsprintf>:
void xsprintf (			/* Put a formatted string to the memory */
	char* buff,			/* Pointer to the output buffer */
	const char*	fmt,	/* Pointer to the format string */
	...					/* Optional arguments */
)
{
 aee:	cf 93       	push	r28
 af0:	df 93       	push	r29
 af2:	cd b7       	in	r28, 0x3d	; 61
 af4:	de b7       	in	r29, 0x3e	; 62
	va_list arp;


	outptr = buff;		/* Switch destination for memory */
 af6:	8d 81       	ldd	r24, Y+5	; 0x05
 af8:	9e 81       	ldd	r25, Y+6	; 0x06
 afa:	90 93 7e 01 	sts	0x017E, r25
 afe:	80 93 7d 01 	sts	0x017D, r24

	va_start(arp, fmt);
 b02:	ce 01       	movw	r24, r28
 b04:	09 96       	adiw	r24, 0x09	; 9
	xvprintf(fmt, arp);
 b06:	bc 01       	movw	r22, r24
 b08:	8f 81       	ldd	r24, Y+7	; 0x07
 b0a:	98 85       	ldd	r25, Y+8	; 0x08
 b0c:	0e 94 b7 03 	call	0x76e	; 0x76e <xvprintf>
	va_end(arp);

	*outptr = 0;		/* Terminate output string with a \0 */
 b10:	e0 91 7d 01 	lds	r30, 0x017D
 b14:	f0 91 7e 01 	lds	r31, 0x017E
 b18:	10 82       	st	Z, r1
	outptr = 0;			/* Switch destination for device */
 b1a:	10 92 7e 01 	sts	0x017E, r1
 b1e:	10 92 7d 01 	sts	0x017D, r1
}
 b22:	df 91       	pop	r29
 b24:	cf 91       	pop	r28
 b26:	08 95       	ret

00000b28 <xfprintf>:
void xfprintf (					/* Put a formatted string to the specified device */
	void(*func)(unsigned char),	/* Pointer to the output function */
	const char*	fmt,			/* Pointer to the format string */
	...							/* Optional arguments */
)
{
 b28:	0f 93       	push	r16
 b2a:	1f 93       	push	r17
 b2c:	cf 93       	push	r28
 b2e:	df 93       	push	r29
 b30:	cd b7       	in	r28, 0x3d	; 61
 b32:	de b7       	in	r29, 0x3e	; 62
	va_list arp;
	void (*pf)(unsigned char);


	pf = xfunc_out;		/* Save current output device */
 b34:	00 91 17 03 	lds	r16, 0x0317
 b38:	10 91 18 03 	lds	r17, 0x0318
	xfunc_out = func;	/* Switch output to specified device */
 b3c:	8f 81       	ldd	r24, Y+7	; 0x07
 b3e:	98 85       	ldd	r25, Y+8	; 0x08
 b40:	90 93 18 03 	sts	0x0318, r25
 b44:	80 93 17 03 	sts	0x0317, r24

	va_start(arp, fmt);
 b48:	ce 01       	movw	r24, r28
 b4a:	0b 96       	adiw	r24, 0x0b	; 11
	xvprintf(fmt, arp);
 b4c:	bc 01       	movw	r22, r24
 b4e:	89 85       	ldd	r24, Y+9	; 0x09
 b50:	9a 85       	ldd	r25, Y+10	; 0x0a
 b52:	0e 94 b7 03 	call	0x76e	; 0x76e <xvprintf>
	va_end(arp);

	xfunc_out = pf;		/* Restore output device */
 b56:	10 93 18 03 	sts	0x0318, r17
 b5a:	00 93 17 03 	sts	0x0317, r16
}
 b5e:	df 91       	pop	r29
 b60:	cf 91       	pop	r28
 b62:	1f 91       	pop	r17
 b64:	0f 91       	pop	r16
 b66:	08 95       	ret

00000b68 <put_dump>:
 b68:	af 92       	push	r10
 b6a:	bf 92       	push	r11
 b6c:	cf 92       	push	r12
 b6e:	df 92       	push	r13
 b70:	ef 92       	push	r14
 b72:	ff 92       	push	r15
 b74:	0f 93       	push	r16
 b76:	1f 93       	push	r17
 b78:	cf 93       	push	r28
 b7a:	df 93       	push	r29
 b7c:	00 d0       	rcall	.+0      	; 0xb7e <put_dump+0x16>
 b7e:	cd b7       	in	r28, 0x3d	; 61
 b80:	de b7       	in	r29, 0x3e	; 62
 b82:	59 01       	movw	r10, r18
 b84:	7f 93       	push	r23
 b86:	6f 93       	push	r22
 b88:	5f 93       	push	r21
 b8a:	4f 93       	push	r20
 b8c:	22 e6       	ldi	r18, 0x62	; 98
 b8e:	31 e0       	ldi	r19, 0x01	; 1
 b90:	3f 93       	push	r19
 b92:	2f 93       	push	r18
 b94:	89 83       	std	Y+1, r24	; 0x01
 b96:	9a 83       	std	Y+2, r25	; 0x02
 b98:	0e 94 69 05 	call	0xad2	; 0xad2 <xprintf>
 b9c:	0f 90       	pop	r0
 b9e:	0f 90       	pop	r0
 ba0:	0f 90       	pop	r0
 ba2:	0f 90       	pop	r0
 ba4:	0f 90       	pop	r0
 ba6:	0f 90       	pop	r0
 ba8:	89 81       	ldd	r24, Y+1	; 0x01
 baa:	9a 81       	ldd	r25, Y+2	; 0x02
 bac:	02 30       	cpi	r16, 0x02	; 2
 bae:	11 05       	cpc	r17, r1
 bb0:	c1 f1       	breq	.+112    	; 0xc22 <put_dump+0xba>
 bb2:	04 30       	cpi	r16, 0x04	; 4
 bb4:	11 05       	cpc	r17, r1
 bb6:	09 f4       	brne	.+2      	; 0xbba <put_dump+0x52>
 bb8:	4d c0       	rjmp	.+154    	; 0xc54 <put_dump+0xec>
 bba:	01 30       	cpi	r16, 0x01	; 1
 bbc:	11 05       	cpc	r17, r1
 bbe:	09 f0       	breq	.+2      	; 0xbc2 <put_dump+0x5a>
 bc0:	67 c0       	rjmp	.+206    	; 0xc90 <put_dump+0x128>
 bc2:	8c 01       	movw	r16, r24
 bc4:	78 01       	movw	r14, r16
 bc6:	69 e6       	ldi	r22, 0x69	; 105
 bc8:	c6 2e       	mov	r12, r22
 bca:	61 e0       	ldi	r22, 0x01	; 1
 bcc:	d6 2e       	mov	r13, r22
 bce:	0d c0       	rjmp	.+26     	; 0xbea <put_dump+0x82>
 bd0:	f7 01       	movw	r30, r14
 bd2:	81 91       	ld	r24, Z+
 bd4:	7f 01       	movw	r14, r30
 bd6:	1f 92       	push	r1
 bd8:	8f 93       	push	r24
 bda:	df 92       	push	r13
 bdc:	cf 92       	push	r12
 bde:	0e 94 69 05 	call	0xad2	; 0xad2 <xprintf>
 be2:	0f 90       	pop	r0
 be4:	0f 90       	pop	r0
 be6:	0f 90       	pop	r0
 be8:	0f 90       	pop	r0
 bea:	c7 01       	movw	r24, r14
 bec:	80 1b       	sub	r24, r16
 bee:	91 0b       	sbc	r25, r17
 bf0:	8a 15       	cp	r24, r10
 bf2:	9b 05       	cpc	r25, r11
 bf4:	6c f3       	brlt	.-38     	; 0xbd0 <put_dump+0x68>
 bf6:	80 e2       	ldi	r24, 0x20	; 32
 bf8:	0e 94 97 03 	call	0x72e	; 0x72e <xputc>
 bfc:	78 01       	movw	r14, r16
 bfe:	0a c0       	rjmp	.+20     	; 0xc14 <put_dump+0xac>
 c00:	f7 01       	movw	r30, r14
 c02:	81 91       	ld	r24, Z+
 c04:	7f 01       	movw	r14, r30
 c06:	98 2f       	mov	r25, r24
 c08:	90 52       	subi	r25, 0x20	; 32
 c0a:	9f 35       	cpi	r25, 0x5F	; 95
 c0c:	08 f0       	brcs	.+2      	; 0xc10 <put_dump+0xa8>
 c0e:	8e e2       	ldi	r24, 0x2E	; 46
 c10:	0e 94 97 03 	call	0x72e	; 0x72e <xputc>
 c14:	c7 01       	movw	r24, r14
 c16:	80 1b       	sub	r24, r16
 c18:	91 0b       	sbc	r25, r17
 c1a:	8a 15       	cp	r24, r10
 c1c:	9b 05       	cpc	r25, r11
 c1e:	84 f3       	brlt	.-32     	; 0xc00 <put_dump+0x98>
 c20:	37 c0       	rjmp	.+110    	; 0xc90 <put_dump+0x128>
 c22:	8c 01       	movw	r16, r24
 c24:	5f e6       	ldi	r21, 0x6F	; 111
 c26:	e5 2e       	mov	r14, r21
 c28:	51 e0       	ldi	r21, 0x01	; 1
 c2a:	f5 2e       	mov	r15, r21
 c2c:	f8 01       	movw	r30, r16
 c2e:	80 81       	ld	r24, Z
 c30:	91 81       	ldd	r25, Z+1	; 0x01
 c32:	0e 5f       	subi	r16, 0xFE	; 254
 c34:	1f 4f       	sbci	r17, 0xFF	; 255
 c36:	9f 93       	push	r25
 c38:	8f 93       	push	r24
 c3a:	ff 92       	push	r15
 c3c:	ef 92       	push	r14
 c3e:	0e 94 69 05 	call	0xad2	; 0xad2 <xprintf>
 c42:	f1 e0       	ldi	r31, 0x01	; 1
 c44:	af 1a       	sub	r10, r31
 c46:	b1 08       	sbc	r11, r1
 c48:	0f 90       	pop	r0
 c4a:	0f 90       	pop	r0
 c4c:	0f 90       	pop	r0
 c4e:	0f 90       	pop	r0
 c50:	69 f7       	brne	.-38     	; 0xc2c <put_dump+0xc4>
 c52:	1e c0       	rjmp	.+60     	; 0xc90 <put_dump+0x128>
 c54:	8c 01       	movw	r16, r24
 c56:	45 e7       	ldi	r20, 0x75	; 117
 c58:	e4 2e       	mov	r14, r20
 c5a:	41 e0       	ldi	r20, 0x01	; 1
 c5c:	f4 2e       	mov	r15, r20
 c5e:	f8 01       	movw	r30, r16
 c60:	80 81       	ld	r24, Z
 c62:	91 81       	ldd	r25, Z+1	; 0x01
 c64:	22 81       	ldd	r18, Z+2	; 0x02
 c66:	33 81       	ldd	r19, Z+3	; 0x03
 c68:	0c 5f       	subi	r16, 0xFC	; 252
 c6a:	1f 4f       	sbci	r17, 0xFF	; 255
 c6c:	3f 93       	push	r19
 c6e:	2f 93       	push	r18
 c70:	9f 93       	push	r25
 c72:	8f 93       	push	r24
 c74:	ff 92       	push	r15
 c76:	ef 92       	push	r14
 c78:	0e 94 69 05 	call	0xad2	; 0xad2 <xprintf>
 c7c:	f1 e0       	ldi	r31, 0x01	; 1
 c7e:	af 1a       	sub	r10, r31
 c80:	b1 08       	sbc	r11, r1
 c82:	0f 90       	pop	r0
 c84:	0f 90       	pop	r0
 c86:	0f 90       	pop	r0
 c88:	0f 90       	pop	r0
 c8a:	0f 90       	pop	r0
 c8c:	0f 90       	pop	r0
 c8e:	39 f7       	brne	.-50     	; 0xc5e <put_dump+0xf6>
 c90:	8a e0       	ldi	r24, 0x0A	; 10
 c92:	0f 90       	pop	r0
 c94:	0f 90       	pop	r0
 c96:	df 91       	pop	r29
 c98:	cf 91       	pop	r28
 c9a:	1f 91       	pop	r17
 c9c:	0f 91       	pop	r16
 c9e:	ff 90       	pop	r15
 ca0:	ef 90       	pop	r14
 ca2:	df 90       	pop	r13
 ca4:	cf 90       	pop	r12
 ca6:	bf 90       	pop	r11
 ca8:	af 90       	pop	r10
 caa:	0c 94 97 03 	jmp	0x72e	; 0x72e <xputc>

00000cae <main>:
 cae:	0e 94 c5 02 	call	0x58a	; 0x58a <uart_init>
 cb2:	8c e2       	ldi	r24, 0x2C	; 44
 cb4:	91 e0       	ldi	r25, 0x01	; 1
 cb6:	0e 94 d8 02 	call	0x5b0	; 0x5b0 <enviar>
 cba:	0e 94 53 00 	call	0xa6	; 0xa6 <nrf24_init>
 cbe:	64 e0       	ldi	r22, 0x04	; 4
 cc0:	82 e0       	ldi	r24, 0x02	; 2
 cc2:	0e 94 c7 01 	call	0x38e	; 0x38e <nrf24_config>
 cc6:	85 e0       	ldi	r24, 0x05	; 5
 cc8:	91 e0       	ldi	r25, 0x01	; 1
 cca:	0e 94 73 02 	call	0x4e6	; 0x4e6 <nrf24_tx_address>
 cce:	80 e0       	ldi	r24, 0x00	; 0
 cd0:	91 e0       	ldi	r25, 0x01	; 1
 cd2:	0e 94 82 02 	call	0x504	; 0x504 <nrf24_rx_address>
 cd6:	62 e4       	ldi	r22, 0x42	; 66
 cd8:	71 e0       	ldi	r23, 0x01	; 1
 cda:	8f e4       	ldi	r24, 0x4F	; 79
 cdc:	92 e0       	ldi	r25, 0x02	; 2
 cde:	0e 94 9e 06 	call	0xd3c	; 0xd3c <strcpy>
 ce2:	86 e4       	ldi	r24, 0x46	; 70
 ce4:	91 e0       	ldi	r25, 0x01	; 1
 ce6:	0e 94 2f 03 	call	0x65e	; 0x65e <nrf_enviar>
 cea:	83 ec       	ldi	r24, 0xC3	; 195
 cec:	99 e0       	ldi	r25, 0x09	; 9
 cee:	01 97       	sbiw	r24, 0x01	; 1
 cf0:	f1 f7       	brne	.-4      	; 0xcee <main+0x40>
 cf2:	00 c0       	rjmp	.+0      	; 0xcf4 <main+0x46>
 cf4:	00 00       	nop
 cf6:	f5 cf       	rjmp	.-22     	; 0xce2 <main+0x34>

00000cf8 <__udivmodsi4>:
 cf8:	a1 e2       	ldi	r26, 0x21	; 33
 cfa:	1a 2e       	mov	r1, r26
 cfc:	aa 1b       	sub	r26, r26
 cfe:	bb 1b       	sub	r27, r27
 d00:	fd 01       	movw	r30, r26
 d02:	0d c0       	rjmp	.+26     	; 0xd1e <__udivmodsi4_ep>

00000d04 <__udivmodsi4_loop>:
 d04:	aa 1f       	adc	r26, r26
 d06:	bb 1f       	adc	r27, r27
 d08:	ee 1f       	adc	r30, r30
 d0a:	ff 1f       	adc	r31, r31
 d0c:	a2 17       	cp	r26, r18
 d0e:	b3 07       	cpc	r27, r19
 d10:	e4 07       	cpc	r30, r20
 d12:	f5 07       	cpc	r31, r21
 d14:	20 f0       	brcs	.+8      	; 0xd1e <__udivmodsi4_ep>
 d16:	a2 1b       	sub	r26, r18
 d18:	b3 0b       	sbc	r27, r19
 d1a:	e4 0b       	sbc	r30, r20
 d1c:	f5 0b       	sbc	r31, r21

00000d1e <__udivmodsi4_ep>:
 d1e:	66 1f       	adc	r22, r22
 d20:	77 1f       	adc	r23, r23
 d22:	88 1f       	adc	r24, r24
 d24:	99 1f       	adc	r25, r25
 d26:	1a 94       	dec	r1
 d28:	69 f7       	brne	.-38     	; 0xd04 <__udivmodsi4_loop>
 d2a:	60 95       	com	r22
 d2c:	70 95       	com	r23
 d2e:	80 95       	com	r24
 d30:	90 95       	com	r25
 d32:	9b 01       	movw	r18, r22
 d34:	ac 01       	movw	r20, r24
 d36:	bd 01       	movw	r22, r26
 d38:	cf 01       	movw	r24, r30
 d3a:	08 95       	ret

00000d3c <strcpy>:
 d3c:	fb 01       	movw	r30, r22
 d3e:	dc 01       	movw	r26, r24
 d40:	01 90       	ld	r0, Z+
 d42:	0d 92       	st	X+, r0
 d44:	00 20       	and	r0, r0
 d46:	e1 f7       	brne	.-8      	; 0xd40 <strcpy+0x4>
 d48:	08 95       	ret

00000d4a <_exit>:
 d4a:	f8 94       	cli

00000d4c <__stop_program>:
 d4c:	ff cf       	rjmp	.-2      	; 0xd4c <__stop_program>
